
main.elf:     file format elf32-avr

Sections:
Idx Name          Size      VMA       LMA       File off  Algn
  0 .data         00000038  00800100  00003152  000031e6  2**0
                  CONTENTS, ALLOC, LOAD, DATA
  1 .text         00003152  00000000  00000000  00000094  2**1
                  CONTENTS, ALLOC, LOAD, READONLY, CODE
  2 .bss          000005dd  00800138  00800138  0000321e  2**0
                  ALLOC
  3 .debug_aranges 00000240  00000000  00000000  0000321e  2**0
                  CONTENTS, READONLY, DEBUGGING
  4 .debug_pubnames 00000ce9  00000000  00000000  0000345e  2**0
                  CONTENTS, READONLY, DEBUGGING
  5 .debug_info   00003de6  00000000  00000000  00004147  2**0
                  CONTENTS, READONLY, DEBUGGING
  6 .debug_abbrev 00001309  00000000  00000000  00007f2d  2**0
                  CONTENTS, READONLY, DEBUGGING
  7 .debug_line   00003b5c  00000000  00000000  00009236  2**0
                  CONTENTS, READONLY, DEBUGGING
  8 .debug_frame  000007a0  00000000  00000000  0000cd94  2**2
                  CONTENTS, READONLY, DEBUGGING
  9 .debug_str    00001969  00000000  00000000  0000d534  2**0
                  CONTENTS, READONLY, DEBUGGING
 10 .debug_loc    0000225c  00000000  00000000  0000ee9d  2**0
                  CONTENTS, READONLY, DEBUGGING

Disassembly of section .text:

00000000 <__vectors>:
       0:	0c 94 46 01 	jmp	0x28c	; 0x28c <__ctors_end>
       4:	0c 94 65 01 	jmp	0x2ca	; 0x2ca <__bad_interrupt>
       8:	0c 94 65 01 	jmp	0x2ca	; 0x2ca <__bad_interrupt>
       c:	0c 94 65 01 	jmp	0x2ca	; 0x2ca <__bad_interrupt>
      10:	0c 94 65 01 	jmp	0x2ca	; 0x2ca <__bad_interrupt>
      14:	0c 94 65 01 	jmp	0x2ca	; 0x2ca <__bad_interrupt>
      18:	0c 94 65 01 	jmp	0x2ca	; 0x2ca <__bad_interrupt>
      1c:	0c 94 65 01 	jmp	0x2ca	; 0x2ca <__bad_interrupt>
      20:	0c 94 65 01 	jmp	0x2ca	; 0x2ca <__bad_interrupt>
      24:	0c 94 65 01 	jmp	0x2ca	; 0x2ca <__bad_interrupt>
      28:	0c 94 65 01 	jmp	0x2ca	; 0x2ca <__bad_interrupt>
      2c:	0c 94 65 01 	jmp	0x2ca	; 0x2ca <__bad_interrupt>
      30:	0c 94 64 0f 	jmp	0x1ec8	; 0x1ec8 <__vector_12>
      34:	0c 94 65 01 	jmp	0x2ca	; 0x2ca <__bad_interrupt>
      38:	0c 94 65 01 	jmp	0x2ca	; 0x2ca <__bad_interrupt>
      3c:	0c 94 65 01 	jmp	0x2ca	; 0x2ca <__bad_interrupt>
      40:	0c 94 65 01 	jmp	0x2ca	; 0x2ca <__bad_interrupt>
      44:	0c 94 65 01 	jmp	0x2ca	; 0x2ca <__bad_interrupt>
      48:	0c 94 d6 0e 	jmp	0x1dac	; 0x1dac <__vector_18>
      4c:	0c 94 01 0f 	jmp	0x1e02	; 0x1e02 <__vector_19>
      50:	0c 94 cb 0e 	jmp	0x1d96	; 0x1d96 <__vector_20>
      54:	0c 94 65 01 	jmp	0x2ca	; 0x2ca <__bad_interrupt>
      58:	0c 94 65 01 	jmp	0x2ca	; 0x2ca <__bad_interrupt>
      5c:	0c 94 65 01 	jmp	0x2ca	; 0x2ca <__bad_interrupt>
      60:	0c 94 65 01 	jmp	0x2ca	; 0x2ca <__bad_interrupt>
      64:	0c 94 65 01 	jmp	0x2ca	; 0x2ca <__bad_interrupt>
      68:	0c 94 6c 02 	jmp	0x4d8	; 0x4d8 <__vector_26>
      6c:	0c 94 65 01 	jmp	0x2ca	; 0x2ca <__bad_interrupt>
      70:	0c 94 65 01 	jmp	0x2ca	; 0x2ca <__bad_interrupt>
      74:	0c 94 65 01 	jmp	0x2ca	; 0x2ca <__bad_interrupt>
      78:	0c 94 65 01 	jmp	0x2ca	; 0x2ca <__bad_interrupt>
      7c:	0c 94 65 01 	jmp	0x2ca	; 0x2ca <__bad_interrupt>
      80:	0c 94 65 01 	jmp	0x2ca	; 0x2ca <__bad_interrupt>
      84:	0c 94 65 01 	jmp	0x2ca	; 0x2ca <__bad_interrupt>
      88:	0c 94 65 01 	jmp	0x2ca	; 0x2ca <__bad_interrupt>

0000008c <aucCRCHi>:
      8c:	00 c1 81 40 01 c0 80 41 01 c0 80 41 00 c1 81 40     ...@...A...A...@
      9c:	01 c0 80 41 00 c1 81 40 00 c1 81 40 01 c0 80 41     ...A...@...@...A
      ac:	01 c0 80 41 00 c1 81 40 00 c1 81 40 01 c0 80 41     ...A...@...@...A
      bc:	00 c1 81 40 01 c0 80 41 01 c0 80 41 00 c1 81 40     ...@...A...A...@
      cc:	01 c0 80 41 00 c1 81 40 00 c1 81 40 01 c0 80 41     ...A...@...@...A
      dc:	00 c1 81 40 01 c0 80 41 01 c0 80 41 00 c1 81 40     ...@...A...A...@
      ec:	00 c1 81 40 01 c0 80 41 01 c0 80 41 00 c1 81 40     ...@...A...A...@
      fc:	01 c0 80 41 00 c1 81 40 00 c1 81 40 01 c0 80 41     ...A...@...@...A
     10c:	01 c0 80 41 00 c1 81 40 00 c1 81 40 01 c0 80 41     ...A...@...@...A
     11c:	00 c1 81 40 01 c0 80 41 01 c0 80 41 00 c1 81 40     ...@...A...A...@
     12c:	00 c1 81 40 01 c0 80 41 01 c0 80 41 00 c1 81 40     ...@...A...A...@
     13c:	01 c0 80 41 00 c1 81 40 00 c1 81 40 01 c0 80 41     ...A...@...@...A
     14c:	00 c1 81 40 01 c0 80 41 01 c0 80 41 00 c1 81 40     ...@...A...A...@
     15c:	01 c0 80 41 00 c1 81 40 00 c1 81 40 01 c0 80 41     ...A...@...@...A
     16c:	01 c0 80 41 00 c1 81 40 00 c1 81 40 01 c0 80 41     ...A...@...@...A
     17c:	00 c1 81 40 01 c0 80 41 01 c0 80 41 00 c1 81 40     ...@...A...A...@

0000018c <aucCRCLo>:
     18c:	00 c0 c1 01 c3 03 02 c2 c6 06 07 c7 05 c5 c4 04     ................
     19c:	cc 0c 0d cd 0f cf ce 0e 0a ca cb 0b c9 09 08 c8     ................
     1ac:	d8 18 19 d9 1b db da 1a 1e de df 1f dd 1d 1c dc     ................
     1bc:	14 d4 d5 15 d7 17 16 d6 d2 12 13 d3 11 d1 d0 10     ................
     1cc:	f0 30 31 f1 33 f3 f2 32 36 f6 f7 37 f5 35 34 f4     .01.3..26..7.54.
     1dc:	3c fc fd 3d ff 3f 3e fe fa 3a 3b fb 39 f9 f8 38     <..=.?>..:;.9..8
     1ec:	28 e8 e9 29 eb 2b 2a ea ee 2e 2f ef 2d ed ec 2c     (..).+*.../.-..,
     1fc:	e4 24 25 e5 27 e7 e6 26 22 e2 e3 23 e1 21 20 e0     .$%.'..&"..#.! .
     20c:	a0 60 61 a1 63 a3 a2 62 66 a6 a7 67 a5 65 64 a4     .`a.c..bf..g.ed.
     21c:	6c ac ad 6d af 6f 6e ae aa 6a 6b ab 69 a9 a8 68     l..m.on..jk.i..h
     22c:	78 b8 b9 79 bb 7b 7a ba be 7e 7f bf 7d bd bc 7c     x..y.{z..~..}..|
     23c:	b4 74 75 b5 77 b7 b6 76 72 b2 b3 73 b1 71 70 b0     .tu.w..vr..s.qp.
     24c:	50 90 91 51 93 53 52 92 96 56 57 97 55 95 94 54     P..Q.SR..VW.U..T
     25c:	9c 5c 5d 9d 5f 9f 9e 5e 5a 9a 9b 5b 99 59 58 98     .\]._..^Z..[.YX.
     26c:	88 48 49 89 4b 8b 8a 4a 4e 8e 8f 4f 8d 4d 4c 8c     .HI.K..JN..O.ML.
     27c:	44 84 85 45 87 47 46 86 82 42 43 83 41 81 80 40     D..E.GF..BC.A..@

0000028c <__ctors_end>:
     28c:	11 24       	eor	r1, r1
     28e:	1f be       	out	0x3f, r1	; 63
     290:	cf ef       	ldi	r28, 0xFF	; 255
     292:	d0 e1       	ldi	r29, 0x10	; 16
     294:	de bf       	out	0x3e, r29	; 62
     296:	cd bf       	out	0x3d, r28	; 61

00000298 <__do_copy_data>:
     298:	11 e0       	ldi	r17, 0x01	; 1
     29a:	a0 e0       	ldi	r26, 0x00	; 0
     29c:	b1 e0       	ldi	r27, 0x01	; 1
     29e:	e2 e5       	ldi	r30, 0x52	; 82
     2a0:	f1 e3       	ldi	r31, 0x31	; 49
     2a2:	00 e0       	ldi	r16, 0x00	; 0
     2a4:	0b bf       	out	0x3b, r16	; 59
     2a6:	02 c0       	rjmp	.+4      	; 0x2ac <__do_copy_data+0x14>
     2a8:	07 90       	elpm	r0, Z+
     2aa:	0d 92       	st	X+, r0
     2ac:	a8 33       	cpi	r26, 0x38	; 56
     2ae:	b1 07       	cpc	r27, r17
     2b0:	d9 f7       	brne	.-10     	; 0x2a8 <__do_copy_data+0x10>

000002b2 <__do_clear_bss>:
     2b2:	17 e0       	ldi	r17, 0x07	; 7
     2b4:	a8 e3       	ldi	r26, 0x38	; 56
     2b6:	b1 e0       	ldi	r27, 0x01	; 1
     2b8:	01 c0       	rjmp	.+2      	; 0x2bc <.do_clear_bss_start>

000002ba <.do_clear_bss_loop>:
     2ba:	1d 92       	st	X+, r1

000002bc <.do_clear_bss_start>:
     2bc:	a5 31       	cpi	r26, 0x15	; 21
     2be:	b1 07       	cpc	r27, r17
     2c0:	e1 f7       	brne	.-8      	; 0x2ba <.do_clear_bss_loop>
     2c2:	0e 94 c8 03 	call	0x790	; 0x790 <main>
     2c6:	0c 94 a7 18 	jmp	0x314e	; 0x314e <_exit>

000002ca <__bad_interrupt>:
     2ca:	0c 94 00 00 	jmp	0	; 0x0 <__vectors>

000002ce <mbMasterClrTimeOutError>:
	return 0;
}

void mbMasterClrTimeOutError( void *lpObject )
{
	uiModbusTimeOutCounter = uiRegHolding[18];
     2ce:	80 91 ce 01 	lds	r24, 0x01CE
     2d2:	90 91 cf 01 	lds	r25, 0x01CF
     2d6:	90 93 a9 01 	sts	0x01A9, r25
     2da:	80 93 a8 01 	sts	0x01A8, r24
}
     2de:	08 95       	ret

000002e0 <eMBRegInputCB>:
	
	return MB_ENOREG;
}

eMBErrorCode eMBRegInputCB(UCHAR * pucRegBuffer, USHORT usAddress, USHORT usNRegs)
{
     2e0:	dc 01       	movw	r26, r24
	unsigned int iRegIndex;
 
	// MB_FUNC_READ_INPUT_REGISTER           (  4 )
	if( (usAddress >= REG_INPUT_START) &&
     2e2:	61 15       	cp	r22, r1
     2e4:	71 05       	cpc	r23, r1
     2e6:	41 f1       	breq	.+80     	; 0x338 <eMBRegInputCB+0x58>
     2e8:	ca 01       	movw	r24, r20
     2ea:	86 0f       	add	r24, r22
     2ec:	97 1f       	adc	r25, r23
     2ee:	86 36       	cpi	r24, 0x66	; 102
     2f0:	91 05       	cpc	r25, r1
     2f2:	10 f5       	brcc	.+68     	; 0x338 <eMBRegInputCB+0x58>
		(usAddress + usNRegs <= REG_INPUT_START + REG_INPUT_NREGS)
	) {
		iRegIndex = (int)(usAddress - REG_INPUT_START);
     2f4:	61 50       	subi	r22, 0x01	; 1
     2f6:	70 40       	sbci	r23, 0x00	; 0
     2f8:	12 c0       	rjmp	.+36     	; 0x31e <eMBRegInputCB+0x3e>
		while( usNRegs > 0 ) {
			*pucRegBuffer++ = (unsigned char)(uiRegInputBuf[iRegIndex] >> 8);
     2fa:	fb 01       	movw	r30, r22
     2fc:	ee 0f       	add	r30, r30
     2fe:	ff 1f       	adc	r31, r31
     300:	e6 58       	subi	r30, 0x86	; 134
     302:	fd 4f       	sbci	r31, 0xFD	; 253
     304:	80 81       	ld	r24, Z
     306:	91 81       	ldd	r25, Z+1	; 0x01
     308:	9c 93       	st	X, r25
            *pucRegBuffer++ = (unsigned char)(uiRegInputBuf[iRegIndex] & 0xFF);
     30a:	80 81       	ld	r24, Z
     30c:	91 81       	ldd	r25, Z+1	; 0x01
     30e:	11 96       	adiw	r26, 0x01	; 1
     310:	8c 93       	st	X, r24
     312:	11 97       	sbiw	r26, 0x01	; 1
	
	return MB_ENOREG;
}

eMBErrorCode eMBRegInputCB(UCHAR * pucRegBuffer, USHORT usAddress, USHORT usNRegs)
{
     314:	12 96       	adiw	r26, 0x02	; 2
	) {
		iRegIndex = (int)(usAddress - REG_INPUT_START);
		while( usNRegs > 0 ) {
			*pucRegBuffer++ = (unsigned char)(uiRegInputBuf[iRegIndex] >> 8);
            *pucRegBuffer++ = (unsigned char)(uiRegInputBuf[iRegIndex] & 0xFF);
			++iRegIndex;
     316:	6f 5f       	subi	r22, 0xFF	; 255
     318:	7f 4f       	sbci	r23, 0xFF	; 255
			--usNRegs;
     31a:	41 50       	subi	r20, 0x01	; 1
     31c:	50 40       	sbci	r21, 0x00	; 0
	// MB_FUNC_READ_INPUT_REGISTER           (  4 )
	if( (usAddress >= REG_INPUT_START) &&
		(usAddress + usNRegs <= REG_INPUT_START + REG_INPUT_NREGS)
	) {
		iRegIndex = (int)(usAddress - REG_INPUT_START);
		while( usNRegs > 0 ) {
     31e:	41 15       	cp	r20, r1
     320:	51 05       	cpc	r21, r1
     322:	59 f7       	brne	.-42     	; 0x2fa <eMBRegInputCB+0x1a>
            *pucRegBuffer++ = (unsigned char)(uiRegInputBuf[iRegIndex] & 0xFF);
			++iRegIndex;
			--usNRegs;
		}

		uiModbusTimeOutCounter = uiRegHolding[18];
     324:	80 91 ce 01 	lds	r24, 0x01CE
     328:	90 91 cf 01 	lds	r25, 0x01CF
     32c:	90 93 a9 01 	sts	0x01A9, r25
     330:	80 93 a8 01 	sts	0x01A8, r24
     334:	80 e0       	ldi	r24, 0x00	; 0
     336:	08 95       	ret
		return MB_ENOERR;
     338:	81 e0       	ldi	r24, 0x01	; 1
	}
	return MB_ENOREG;
}
     33a:	08 95       	ret

0000033c <eMBRegHoldingCB>:

eMBErrorCode eMBRegHoldingCB( UCHAR * pucRegBuffer, USHORT usAddress,
							  USHORT usNRegs, eMBRegisterMode eMode
)
{
     33c:	cf 93       	push	r28
     33e:	df 93       	push	r29
     340:	ec 01       	movw	r28, r24
	unsigned int iRegIndex;
	
	/* Check if we have registers mapped at this block. */
	if( (usAddress >= REG_HOLDING_START) &&
     342:	61 15       	cp	r22, r1
     344:	71 05       	cpc	r23, r1
     346:	09 f4       	brne	.+2      	; 0x34a <eMBRegHoldingCB+0xe>
     348:	49 c0       	rjmp	.+146    	; 0x3dc <eMBRegHoldingCB+0xa0>
     34a:	ca 01       	movw	r24, r20
     34c:	86 0f       	add	r24, r22
     34e:	97 1f       	adc	r25, r23
     350:	86 36       	cpi	r24, 0x66	; 102
     352:	91 05       	cpc	r25, r1
     354:	08 f0       	brcs	.+2      	; 0x358 <eMBRegHoldingCB+0x1c>
     356:	42 c0       	rjmp	.+132    	; 0x3dc <eMBRegHoldingCB+0xa0>
		(usAddress + usNRegs <= REG_HOLDING_START + REG_HOLDING_NREGS)
	) {
		switch(eMode) {
     358:	22 23       	and	r18, r18
     35a:	19 f0       	breq	.+6      	; 0x362 <eMBRegHoldingCB+0x26>
     35c:	21 30       	cpi	r18, 0x01	; 1
     35e:	f1 f5       	brne	.+124    	; 0x3dc <eMBRegHoldingCB+0xa0>
     360:	17 c0       	rjmp	.+46     	; 0x390 <eMBRegHoldingCB+0x54>
		case MB_REG_READ:
			iRegIndex = (int)(usAddress - 1);
     362:	61 50       	subi	r22, 0x01	; 1
     364:	70 40       	sbci	r23, 0x00	; 0
     366:	10 c0       	rjmp	.+32     	; 0x388 <eMBRegHoldingCB+0x4c>
			while( usNRegs > 0 ) {
				*pucRegBuffer++ = uiRegHolding[iRegIndex]>>8;
     368:	fb 01       	movw	r30, r22
     36a:	ee 0f       	add	r30, r30
     36c:	ff 1f       	adc	r31, r31
     36e:	e6 55       	subi	r30, 0x56	; 86
     370:	fe 4f       	sbci	r31, 0xFE	; 254
     372:	80 81       	ld	r24, Z
     374:	91 81       	ldd	r25, Z+1	; 0x01
     376:	98 83       	st	Y, r25
				*pucRegBuffer++ = uiRegHolding[iRegIndex];
     378:	80 81       	ld	r24, Z
     37a:	91 81       	ldd	r25, Z+1	; 0x01
     37c:	89 83       	std	Y+1, r24	; 0x01
}

eMBErrorCode eMBRegHoldingCB( UCHAR * pucRegBuffer, USHORT usAddress,
							  USHORT usNRegs, eMBRegisterMode eMode
)
{
     37e:	22 96       	adiw	r28, 0x02	; 2
		case MB_REG_READ:
			iRegIndex = (int)(usAddress - 1);
			while( usNRegs > 0 ) {
				*pucRegBuffer++ = uiRegHolding[iRegIndex]>>8;
				*pucRegBuffer++ = uiRegHolding[iRegIndex];
				++iRegIndex;
     380:	6f 5f       	subi	r22, 0xFF	; 255
     382:	7f 4f       	sbci	r23, 0xFF	; 255
				--usNRegs;
     384:	41 50       	subi	r20, 0x01	; 1
     386:	50 40       	sbci	r21, 0x00	; 0
		(usAddress + usNRegs <= REG_HOLDING_START + REG_HOLDING_NREGS)
	) {
		switch(eMode) {
		case MB_REG_READ:
			iRegIndex = (int)(usAddress - 1);
			while( usNRegs > 0 ) {
     388:	41 15       	cp	r20, r1
     38a:	51 05       	cpc	r21, r1
     38c:	69 f7       	brne	.-38     	; 0x368 <eMBRegHoldingCB+0x2c>
     38e:	1c c0       	rjmp	.+56     	; 0x3c8 <eMBRegHoldingCB+0x8c>
		/*
		 	Update current register values.
		 	MB_FUNC_WRITE_MULTIPLE_REGISTERS             (16)
		*/
		case MB_REG_WRITE: {
			iRegIndex = (int)(usAddress - 1);
     390:	61 50       	subi	r22, 0x01	; 1
     392:	70 40       	sbci	r23, 0x00	; 0
     394:	16 c0       	rjmp	.+44     	; 0x3c2 <eMBRegHoldingCB+0x86>
			while( usNRegs > 0 ) {
				uiRegHolding[iRegIndex]  = (*pucRegBuffer++)<<8;
     396:	b8 81       	ld	r27, Y
     398:	a0 e0       	ldi	r26, 0x00	; 0
     39a:	fb 01       	movw	r30, r22
     39c:	ee 0f       	add	r30, r30
     39e:	ff 1f       	adc	r31, r31
     3a0:	e6 55       	subi	r30, 0x56	; 86
     3a2:	fe 4f       	sbci	r31, 0xFE	; 254
     3a4:	b1 83       	std	Z+1, r27	; 0x01
     3a6:	a0 83       	st	Z, r26
				uiRegHolding[iRegIndex] |= *pucRegBuffer++;
     3a8:	20 81       	ld	r18, Z
     3aa:	31 81       	ldd	r19, Z+1	; 0x01
     3ac:	89 81       	ldd	r24, Y+1	; 0x01
     3ae:	90 e0       	ldi	r25, 0x00	; 0
     3b0:	28 2b       	or	r18, r24
     3b2:	39 2b       	or	r19, r25
     3b4:	31 83       	std	Z+1, r19	; 0x01
     3b6:	20 83       	st	Z, r18
}

eMBErrorCode eMBRegHoldingCB( UCHAR * pucRegBuffer, USHORT usAddress,
							  USHORT usNRegs, eMBRegisterMode eMode
)
{
     3b8:	22 96       	adiw	r28, 0x02	; 2
		case MB_REG_WRITE: {
			iRegIndex = (int)(usAddress - 1);
			while( usNRegs > 0 ) {
				uiRegHolding[iRegIndex]  = (*pucRegBuffer++)<<8;
				uiRegHolding[iRegIndex] |= *pucRegBuffer++;
				++iRegIndex;
     3ba:	6f 5f       	subi	r22, 0xFF	; 255
     3bc:	7f 4f       	sbci	r23, 0xFF	; 255
				--usNRegs;
     3be:	41 50       	subi	r20, 0x01	; 1
     3c0:	50 40       	sbci	r21, 0x00	; 0
		 	Update current register values.
		 	MB_FUNC_WRITE_MULTIPLE_REGISTERS             (16)
		*/
		case MB_REG_WRITE: {
			iRegIndex = (int)(usAddress - 1);
			while( usNRegs > 0 ) {
     3c2:	41 15       	cp	r20, r1
     3c4:	51 05       	cpc	r21, r1
     3c6:	39 f7       	brne	.-50     	; 0x396 <eMBRegHoldingCB+0x5a>
				uiRegHolding[iRegIndex] |= *pucRegBuffer++;
				++iRegIndex;
				--usNRegs;
			}

			uiModbusTimeOutCounter = uiRegHolding[18];
     3c8:	80 91 ce 01 	lds	r24, 0x01CE
     3cc:	90 91 cf 01 	lds	r25, 0x01CF
     3d0:	90 93 a9 01 	sts	0x01A9, r25
     3d4:	80 93 a8 01 	sts	0x01A8, r24
     3d8:	80 e0       	ldi	r24, 0x00	; 0
     3da:	01 c0       	rjmp	.+2      	; 0x3de <eMBRegHoldingCB+0xa2>
		}
		 return MB_ENOERR;
     3dc:	81 e0       	ldi	r24, 0x01	; 1
		}
	}

	return MB_ENOREG;
}
     3de:	df 91       	pop	r29
     3e0:	cf 91       	pop	r28
     3e2:	08 95       	ret

000003e4 <byteArrToBitArr>:

void byteArrToBitArr( uint8_t *lpBit, const uint8_t *lpByte, uint16_t bit_count )
{
     3e4:	0f 93       	push	r16
     3e6:	1f 93       	push	r17
     3e8:	cf 93       	push	r28
     3ea:	df 93       	push	r29
     3ec:	ec 01       	movw	r28, r24
     3ee:	a0 e0       	ldi	r26, 0x00	; 0
     3f0:	b0 e0       	ldi	r27, 0x00	; 0
	for( i = 0; i < bit_count; i++ ) {
		n = i / 8;
		if( lpByte[i] ) {
			lpBit[ n ] |=  ( 1<<(i - 8 * n) );
		} else {
			lpBit[ n ] &= ~( 1<<(i - 8 * n) );
     3f2:	01 e0       	ldi	r16, 0x01	; 1
     3f4:	10 e0       	ldi	r17, 0x00	; 0
     3f6:	32 c0       	rjmp	.+100    	; 0x45c <byteArrToBitArr+0x78>
void byteArrToBitArr( uint8_t *lpBit, const uint8_t *lpByte, uint16_t bit_count )
{
	uint16_t i, n;

	for( i = 0; i < bit_count; i++ ) {
		n = i / 8;
     3f8:	cd 01       	movw	r24, r26
     3fa:	e3 e0       	ldi	r30, 0x03	; 3
     3fc:	96 95       	lsr	r25
     3fe:	87 95       	ror	r24
     400:	ea 95       	dec	r30
     402:	e1 f7       	brne	.-8      	; 0x3fc <byteArrToBitArr+0x18>
		if( lpByte[i] ) {
     404:	fb 01       	movw	r30, r22
     406:	ea 0f       	add	r30, r26
     408:	fb 1f       	adc	r31, r27
     40a:	20 81       	ld	r18, Z
     40c:	fe 01       	movw	r30, r28
     40e:	e8 0f       	add	r30, r24
     410:	f9 1f       	adc	r31, r25
     412:	33 e0       	ldi	r19, 0x03	; 3
     414:	88 0f       	add	r24, r24
     416:	99 1f       	adc	r25, r25
     418:	3a 95       	dec	r19
     41a:	e1 f7       	brne	.-8      	; 0x414 <byteArrToBitArr+0x30>
     41c:	22 23       	and	r18, r18
     41e:	71 f0       	breq	.+28     	; 0x43c <byteArrToBitArr+0x58>
			lpBit[ n ] |=  ( 1<<(i - 8 * n) );
     420:	9d 01       	movw	r18, r26
     422:	28 1b       	sub	r18, r24
     424:	39 0b       	sbc	r19, r25
     426:	c9 01       	movw	r24, r18
     428:	98 01       	movw	r18, r16
     42a:	02 c0       	rjmp	.+4      	; 0x430 <byteArrToBitArr+0x4c>
     42c:	22 0f       	add	r18, r18
     42e:	33 1f       	adc	r19, r19
     430:	8a 95       	dec	r24
     432:	e2 f7       	brpl	.-8      	; 0x42c <byteArrToBitArr+0x48>
     434:	c9 01       	movw	r24, r18
     436:	20 81       	ld	r18, Z
     438:	28 2b       	or	r18, r24
     43a:	0e c0       	rjmp	.+28     	; 0x458 <byteArrToBitArr+0x74>
		} else {
			lpBit[ n ] &= ~( 1<<(i - 8 * n) );
     43c:	9d 01       	movw	r18, r26
     43e:	28 1b       	sub	r18, r24
     440:	39 0b       	sbc	r19, r25
     442:	c9 01       	movw	r24, r18
     444:	98 01       	movw	r18, r16
     446:	02 c0       	rjmp	.+4      	; 0x44c <byteArrToBitArr+0x68>
     448:	22 0f       	add	r18, r18
     44a:	33 1f       	adc	r19, r19
     44c:	8a 95       	dec	r24
     44e:	e2 f7       	brpl	.-8      	; 0x448 <byteArrToBitArr+0x64>
     450:	c9 01       	movw	r24, r18
     452:	80 95       	com	r24
     454:	20 81       	ld	r18, Z
     456:	28 23       	and	r18, r24
     458:	20 83       	st	Z, r18

void byteArrToBitArr( uint8_t *lpBit, const uint8_t *lpByte, uint16_t bit_count )
{
	uint16_t i, n;

	for( i = 0; i < bit_count; i++ ) {
     45a:	11 96       	adiw	r26, 0x01	; 1
     45c:	a4 17       	cp	r26, r20
     45e:	b5 07       	cpc	r27, r21
     460:	58 f2       	brcs	.-106    	; 0x3f8 <byteArrToBitArr+0x14>
			lpBit[ n ] |=  ( 1<<(i - 8 * n) );
		} else {
			lpBit[ n ] &= ~( 1<<(i - 8 * n) );
		}
	}
}
     462:	df 91       	pop	r29
     464:	cf 91       	pop	r28
     466:	1f 91       	pop	r17
     468:	0f 91       	pop	r16
     46a:	08 95       	ret

0000046c <initBoard>:

	PORTG &= ~MCU_PG0_bm;
}

void initBoard(void)
{
     46c:	0f 93       	push	r16
     46e:	1f 93       	push	r17
	PORTG &= ~MCU_IO_RESET_bm;
     470:	05 e6       	ldi	r16, 0x65	; 101
     472:	10 e0       	ldi	r17, 0x00	; 0
     474:	f8 01       	movw	r30, r16
     476:	80 81       	ld	r24, Z
     478:	8b 7f       	andi	r24, 0xFB	; 251
     47a:	80 83       	st	Z, r24
	DDRG |= MCU_IO_RESET_bm | MCU_PG1_bm | MCU_PG0_bm;
     47c:	e4 e6       	ldi	r30, 0x64	; 100
     47e:	f0 e0       	ldi	r31, 0x00	; 0
     480:	80 81       	ld	r24, Z
     482:	87 60       	ori	r24, 0x07	; 7
     484:	80 83       	st	Z, r24

	initDigitalOutput();
     486:	0e 94 a1 11 	call	0x2342	; 0x2342 <initDigitalOutput>

	PORTB |= MCU_CS1_bm | MCU_CS0_bm;
     48a:	88 b3       	in	r24, 0x18	; 24
     48c:	81 61       	ori	r24, 0x11	; 17
     48e:	88 bb       	out	0x18, r24	; 24
	DDRB |= ( MCU_CS1_bm | MCU_CS0_bm );
     490:	87 b3       	in	r24, 0x17	; 23
     492:	81 61       	ori	r24, 0x11	; 17
     494:	87 bb       	out	0x17, r24	; 23

	DDRE |= MCU_RS485_DE_bm;
     496:	12 9a       	sbi	0x02, 2	; 2
	disable_rs485_transmit();
     498:	1a 98       	cbi	0x03, 2	; 3

	spi_init();
     49a:	0e 94 59 12 	call	0x24b2	; 0x24b2 <spi_init>
	initHmiLed();
     49e:	0e 94 38 12 	call	0x2470	; 0x2470 <initHmiLed>
	initAddressSwitch();
     4a2:	0e 94 d9 11 	call	0x23b2	; 0x23b2 <initAddressSwitch>
	initDigitalInput();
     4a6:	0e 94 7b 11 	call	0x22f6	; 0x22f6 <initDigitalInput>

	PORTG |= MCU_IO_RESET_bm;
     4aa:	f8 01       	movw	r30, r16
     4ac:	80 81       	ld	r24, Z
     4ae:	84 60       	ori	r24, 0x04	; 4
     4b0:	80 83       	st	Z, r24

	OCR3A = 249;
     4b2:	89 ef       	ldi	r24, 0xF9	; 249
     4b4:	90 e0       	ldi	r25, 0x00	; 0
     4b6:	90 93 87 00 	sts	0x0087, r25
     4ba:	80 93 86 00 	sts	0x0086, r24
	TCCR3A = 0;
     4be:	10 92 8b 00 	sts	0x008B, r1
	TCCR3B = (1<<WGM32) | (1<<CS31) | (1<<CS30);
     4c2:	8b e0       	ldi	r24, 0x0B	; 11
     4c4:	80 93 8a 00 	sts	0x008A, r24
	ETIMSK |= (1<<OCIE3A);
     4c8:	ed e7       	ldi	r30, 0x7D	; 125
     4ca:	f0 e0       	ldi	r31, 0x00	; 0
     4cc:	80 81       	ld	r24, Z
     4ce:	80 61       	ori	r24, 0x10	; 16
     4d0:	80 83       	st	Z, r24
}
     4d2:	1f 91       	pop	r17
     4d4:	0f 91       	pop	r16
     4d6:	08 95       	ret

000004d8 <__vector_26>:
		}
	}
}

ISR( TIMER3_COMPA_vect )
{
     4d8:	1f 92       	push	r1
     4da:	0f 92       	push	r0
     4dc:	0f b6       	in	r0, 0x3f	; 63
     4de:	0f 92       	push	r0
     4e0:	0b b6       	in	r0, 0x3b	; 59
     4e2:	0f 92       	push	r0
     4e4:	11 24       	eor	r1, r1
     4e6:	2f 93       	push	r18
     4e8:	3f 93       	push	r19
     4ea:	4f 93       	push	r20
     4ec:	5f 93       	push	r21
     4ee:	6f 93       	push	r22
     4f0:	7f 93       	push	r23
     4f2:	8f 93       	push	r24
     4f4:	9f 93       	push	r25
     4f6:	af 93       	push	r26
     4f8:	bf 93       	push	r27
     4fa:	ef 93       	push	r30
     4fc:	ff 93       	push	r31
	volatile static uint16_t n0 = 0, n1 = 0, n2 = 0, n3 = 0;

	PORTG |= MCU_PG0_bm;
     4fe:	80 91 65 00 	lds	r24, 0x0065
     502:	81 60       	ori	r24, 0x01	; 1
     504:	80 93 65 00 	sts	0x0065, r24

	if( 10 == ++n0 ) {
     508:	80 91 78 02 	lds	r24, 0x0278
     50c:	90 91 79 02 	lds	r25, 0x0279
     510:	01 96       	adiw	r24, 0x01	; 1
     512:	90 93 79 02 	sts	0x0279, r25
     516:	80 93 78 02 	sts	0x0278, r24
     51a:	80 91 78 02 	lds	r24, 0x0278
     51e:	90 91 79 02 	lds	r25, 0x0279
     522:	0a 97       	sbiw	r24, 0x0a	; 10
     524:	39 f4       	brne	.+14     	; 0x534 <__vector_26+0x5c>
		uc10msTimerEvent = 1;
     526:	81 e0       	ldi	r24, 0x01	; 1
     528:	80 93 a1 01 	sts	0x01A1, r24
		n0 = 0;
     52c:	10 92 79 02 	sts	0x0279, r1
     530:	10 92 78 02 	sts	0x0278, r1
	}

	if( 100 == ++n1 ) {
     534:	80 91 76 02 	lds	r24, 0x0276
     538:	90 91 77 02 	lds	r25, 0x0277
     53c:	01 96       	adiw	r24, 0x01	; 1
     53e:	90 93 77 02 	sts	0x0277, r25
     542:	80 93 76 02 	sts	0x0276, r24
     546:	80 91 76 02 	lds	r24, 0x0276
     54a:	90 91 77 02 	lds	r25, 0x0277
     54e:	84 36       	cpi	r24, 0x64	; 100
     550:	91 05       	cpc	r25, r1
     552:	39 f4       	brne	.+14     	; 0x562 <__vector_26+0x8a>
		uc100msTimerEvent = 1;
     554:	81 e0       	ldi	r24, 0x01	; 1
     556:	80 93 a2 01 	sts	0x01A2, r24
		n1 = 0;
     55a:	10 92 77 02 	sts	0x0277, r1
     55e:	10 92 76 02 	sts	0x0276, r1
	}

	if( 500 == ++n2 ) {
     562:	80 91 74 02 	lds	r24, 0x0274
     566:	90 91 75 02 	lds	r25, 0x0275
     56a:	01 96       	adiw	r24, 0x01	; 1
     56c:	90 93 75 02 	sts	0x0275, r25
     570:	80 93 74 02 	sts	0x0274, r24
     574:	80 91 74 02 	lds	r24, 0x0274
     578:	90 91 75 02 	lds	r25, 0x0275
     57c:	84 5f       	subi	r24, 0xF4	; 244
     57e:	91 40       	sbci	r25, 0x01	; 1
     580:	51 f4       	brne	.+20     	; 0x596 <__vector_26+0xbe>
		uc500msTimerEvent = 1;
     582:	81 e0       	ldi	r24, 0x01	; 1
     584:	90 e0       	ldi	r25, 0x00	; 0
     586:	90 93 a4 01 	sts	0x01A4, r25
     58a:	80 93 a3 01 	sts	0x01A3, r24
		n2 = 0;
     58e:	10 92 75 02 	sts	0x0275, r1
     592:	10 92 74 02 	sts	0x0274, r1
	}

	if( 1000 == ++n3 ) {
     596:	80 91 72 02 	lds	r24, 0x0272
     59a:	90 91 73 02 	lds	r25, 0x0273
     59e:	01 96       	adiw	r24, 0x01	; 1
     5a0:	90 93 73 02 	sts	0x0273, r25
     5a4:	80 93 72 02 	sts	0x0272, r24
     5a8:	80 91 72 02 	lds	r24, 0x0272
     5ac:	90 91 73 02 	lds	r25, 0x0273
     5b0:	88 5e       	subi	r24, 0xE8	; 232
     5b2:	93 40       	sbci	r25, 0x03	; 3
     5b4:	51 f4       	brne	.+20     	; 0x5ca <__vector_26+0xf2>
		uc1000msTimerEvent = 1;
     5b6:	81 e0       	ldi	r24, 0x01	; 1
     5b8:	90 e0       	ldi	r25, 0x00	; 0
     5ba:	90 93 a6 01 	sts	0x01A6, r25
     5be:	80 93 a5 01 	sts	0x01A5, r24
		n3 = 0;
     5c2:	10 92 73 02 	sts	0x0273, r1
     5c6:	10 92 72 02 	sts	0x0272, r1
	}

	rs485TimerIsr();
     5ca:	0e 94 9c 16 	call	0x2d38	; 0x2d38 <rs485TimerIsr>

	if( uiRegHolding[18] ) {
     5ce:	80 91 ce 01 	lds	r24, 0x01CE
     5d2:	90 91 cf 01 	lds	r25, 0x01CF
     5d6:	89 2b       	or	r24, r25
     5d8:	a1 f0       	breq	.+40     	; 0x602 <__vector_26+0x12a>
		if( uiModbusTimeOutCounter ) {
     5da:	80 91 a8 01 	lds	r24, 0x01A8
     5de:	90 91 a9 01 	lds	r25, 0x01A9
     5e2:	89 2b       	or	r24, r25
     5e4:	51 f0       	breq	.+20     	; 0x5fa <__vector_26+0x122>
			--uiModbusTimeOutCounter;
     5e6:	80 91 a8 01 	lds	r24, 0x01A8
     5ea:	90 91 a9 01 	lds	r25, 0x01A9
     5ee:	01 97       	sbiw	r24, 0x01	; 1
     5f0:	90 93 a9 01 	sts	0x01A9, r25
     5f4:	80 93 a8 01 	sts	0x01A8, r24
     5f8:	06 c0       	rjmp	.+12     	; 0x606 <__vector_26+0x12e>
		} else {
			ucFlagTimeOutOutError = 1;
     5fa:	81 e0       	ldi	r24, 0x01	; 1
     5fc:	80 93 a7 01 	sts	0x01A7, r24
     600:	02 c0       	rjmp	.+4      	; 0x606 <__vector_26+0x12e>
		}
	} else {
		ucFlagTimeOutOutError = 0;
     602:	10 92 a7 01 	sts	0x01A7, r1
	}

	PORTG &= ~MCU_PG0_bm;
     606:	80 91 65 00 	lds	r24, 0x0065
     60a:	8e 7f       	andi	r24, 0xFE	; 254
     60c:	80 93 65 00 	sts	0x0065, r24
}
     610:	ff 91       	pop	r31
     612:	ef 91       	pop	r30
     614:	bf 91       	pop	r27
     616:	af 91       	pop	r26
     618:	9f 91       	pop	r25
     61a:	8f 91       	pop	r24
     61c:	7f 91       	pop	r23
     61e:	6f 91       	pop	r22
     620:	5f 91       	pop	r21
     622:	4f 91       	pop	r20
     624:	3f 91       	pop	r19
     626:	2f 91       	pop	r18
     628:	0f 90       	pop	r0
     62a:	0b be       	out	0x3b, r0	; 59
     62c:	0f 90       	pop	r0
     62e:	0f be       	out	0x3f, r0	; 63
     630:	0f 90       	pop	r0
     632:	1f 90       	pop	r1
     634:	18 95       	reti

00000636 <eMBRegDiscreteCB>:
{
	initRS485( 115200, 8, 1, 1 );
}

eMBErrorCode eMBRegDiscreteCB(UCHAR * pucRegBuffer, USHORT usAddress, USHORT usNDiscrete)
{
     636:	ef 92       	push	r14
     638:	ff 92       	push	r15
     63a:	0f 93       	push	r16
     63c:	1f 93       	push	r17
     63e:	cf 93       	push	r28
     640:	df 93       	push	r29
     642:	7c 01       	movw	r14, r24
	short iNDiscrete = ( short )usNDiscrete;
	unsigned short usBitOffset;

	// MB_FUNC_READ_DISCRETE_INPUTS          ( 2 )
	/* Check if we have registers mapped at this block. */
	if( (usAddress >= REG_DISC_START) &&
     644:	61 15       	cp	r22, r1
     646:	71 05       	cpc	r23, r1
     648:	51 f1       	breq	.+84     	; 0x69e <eMBRegDiscreteCB+0x68>
     64a:	ca 01       	movw	r24, r20
     64c:	86 0f       	add	r24, r22
     64e:	97 1f       	adc	r25, r23
     650:	86 36       	cpi	r24, 0x66	; 102
     652:	91 05       	cpc	r25, r1
     654:	20 f5       	brcc	.+72     	; 0x69e <eMBRegDiscreteCB+0x68>
	initRS485( 115200, 8, 1, 1 );
}

eMBErrorCode eMBRegDiscreteCB(UCHAR * pucRegBuffer, USHORT usAddress, USHORT usNDiscrete)
{
	short iNDiscrete = ( short )usNDiscrete;
     656:	ea 01       	movw	r28, r20
	// MB_FUNC_READ_DISCRETE_INPUTS          ( 2 )
	/* Check if we have registers mapped at this block. */
	if( (usAddress >= REG_DISC_START) &&
		(usAddress + usNDiscrete <= REG_DISC_START + REG_DISC_SIZE)
	) {
		usBitOffset = ( unsigned short )( usAddress - REG_DISC_START );
     658:	8b 01       	movw	r16, r22
     65a:	01 50       	subi	r16, 0x01	; 1
     65c:	10 40       	sbci	r17, 0x00	; 0
     65e:	12 c0       	rjmp	.+36     	; 0x684 <eMBRegDiscreteCB+0x4e>
		while(iNDiscrete > 0) {
			*pucRegBuffer++ =
     660:	ae 01       	movw	r20, r28
     662:	c9 30       	cpi	r28, 0x09	; 9
     664:	d1 05       	cpc	r29, r1
     666:	14 f0       	brlt	.+4      	; 0x66c <eMBRegDiscreteCB+0x36>
     668:	48 e0       	ldi	r20, 0x08	; 8
     66a:	50 e0       	ldi	r21, 0x00	; 0
     66c:	8e e4       	ldi	r24, 0x4E	; 78
     66e:	93 e0       	ldi	r25, 0x03	; 3
     670:	b8 01       	movw	r22, r16
     672:	50 e0       	ldi	r21, 0x00	; 0
     674:	0e 94 4a 0d 	call	0x1a94	; 0x1a94 <xMBUtilGetBits>
     678:	f7 01       	movw	r30, r14
     67a:	81 93       	st	Z+, r24
     67c:	7f 01       	movw	r14, r30
			xMBUtilGetBits
			(
				ucRegDiscBuf, usBitOffset,
				(unsigned char)(iNDiscrete>8? 8:iNDiscrete)
			);
			iNDiscrete -= 8;
     67e:	28 97       	sbiw	r28, 0x08	; 8
			usBitOffset += 8;
     680:	08 5f       	subi	r16, 0xF8	; 248
     682:	1f 4f       	sbci	r17, 0xFF	; 255
	/* Check if we have registers mapped at this block. */
	if( (usAddress >= REG_DISC_START) &&
		(usAddress + usNDiscrete <= REG_DISC_START + REG_DISC_SIZE)
	) {
		usBitOffset = ( unsigned short )( usAddress - REG_DISC_START );
		while(iNDiscrete > 0) {
     684:	1c 16       	cp	r1, r28
     686:	1d 06       	cpc	r1, r29
     688:	5c f3       	brlt	.-42     	; 0x660 <eMBRegDiscreteCB+0x2a>
			);
			iNDiscrete -= 8;
			usBitOffset += 8;
		}

		uiModbusTimeOutCounter = uiRegHolding[18];
     68a:	80 91 ce 01 	lds	r24, 0x01CE
     68e:	90 91 cf 01 	lds	r25, 0x01CF
     692:	90 93 a9 01 	sts	0x01A9, r25
     696:	80 93 a8 01 	sts	0x01A8, r24
     69a:	80 e0       	ldi	r24, 0x00	; 0
     69c:	01 c0       	rjmp	.+2      	; 0x6a0 <eMBRegDiscreteCB+0x6a>
		return MB_ENOERR;
     69e:	81 e0       	ldi	r24, 0x01	; 1
	}
	
	return MB_ENOREG;
}
     6a0:	df 91       	pop	r29
     6a2:	cf 91       	pop	r28
     6a4:	1f 91       	pop	r17
     6a6:	0f 91       	pop	r16
     6a8:	ff 90       	pop	r15
     6aa:	ef 90       	pop	r14
     6ac:	08 95       	ret

000006ae <eMBRegCoilsCB>:

eMBErrorCode eMBRegCoilsCB( UCHAR * pucRegBuffer, USHORT usAddress,
							USHORT usNCoils, eMBRegisterMode eMode
						  )
{
     6ae:	ef 92       	push	r14
     6b0:	ff 92       	push	r15
     6b2:	0f 93       	push	r16
     6b4:	1f 93       	push	r17
     6b6:	cf 93       	push	r28
     6b8:	df 93       	push	r29
     6ba:	7c 01       	movw	r14, r24
    short           iNCoils = ( short )usNCoils;
    unsigned short  usBitOffset;
	
	/* Check if we have registers mapped at this block. */
	if( (usAddress >= REG_COILS_START) &&
     6bc:	61 15       	cp	r22, r1
     6be:	71 05       	cpc	r23, r1
     6c0:	09 f4       	brne	.+2      	; 0x6c4 <eMBRegCoilsCB+0x16>
     6c2:	46 c0       	rjmp	.+140    	; 0x750 <eMBRegCoilsCB+0xa2>
     6c4:	ca 01       	movw	r24, r20
     6c6:	86 0f       	add	r24, r22
     6c8:	97 1f       	adc	r25, r23
     6ca:	86 36       	cpi	r24, 0x66	; 102
     6cc:	91 05       	cpc	r25, r1
     6ce:	08 f0       	brcs	.+2      	; 0x6d2 <eMBRegCoilsCB+0x24>
     6d0:	3f c0       	rjmp	.+126    	; 0x750 <eMBRegCoilsCB+0xa2>

eMBErrorCode eMBRegCoilsCB( UCHAR * pucRegBuffer, USHORT usAddress,
							USHORT usNCoils, eMBRegisterMode eMode
						  )
{
    short           iNCoils = ( short )usNCoils;
     6d2:	ea 01       	movw	r28, r20
	
	/* Check if we have registers mapped at this block. */
	if( (usAddress >= REG_COILS_START) &&
		(usAddress + usNCoils <= REG_COILS_START + REG_COILS_SIZE)
	) {
		usBitOffset = (unsigned short)(usAddress - REG_COILS_START);
     6d4:	8b 01       	movw	r16, r22
     6d6:	01 50       	subi	r16, 0x01	; 1
     6d8:	10 40       	sbci	r17, 0x00	; 0
		switch(eMode) {
     6da:	22 23       	and	r18, r18
     6dc:	a9 f0       	breq	.+42     	; 0x708 <eMBRegCoilsCB+0x5a>
     6de:	21 30       	cpi	r18, 0x01	; 1
     6e0:	b9 f5       	brne	.+110    	; 0x750 <eMBRegCoilsCB+0xa2>
     6e2:	29 c0       	rjmp	.+82     	; 0x736 <eMBRegCoilsCB+0x88>
			Read current values and pass to protocol stack.
			MB_FUNC_READ_COILS						( 1 )
		*/
		case MB_REG_READ:
			while( iNCoils > 0 ) {
				*pucRegBuffer++ =
     6e4:	ae 01       	movw	r20, r28
     6e6:	c9 30       	cpi	r28, 0x09	; 9
     6e8:	d1 05       	cpc	r29, r1
     6ea:	14 f0       	brlt	.+4      	; 0x6f0 <eMBRegCoilsCB+0x42>
     6ec:	48 e0       	ldi	r20, 0x08	; 8
     6ee:	50 e0       	ldi	r21, 0x00	; 0
     6f0:	82 e4       	ldi	r24, 0x42	; 66
     6f2:	93 e0       	ldi	r25, 0x03	; 3
     6f4:	b8 01       	movw	r22, r16
     6f6:	50 e0       	ldi	r21, 0x00	; 0
     6f8:	0e 94 4a 0d 	call	0x1a94	; 0x1a94 <xMBUtilGetBits>
     6fc:	f7 01       	movw	r30, r14
     6fe:	81 93       	st	Z+, r24
     700:	7f 01       	movw	r14, r30
				xMBUtilGetBits( ucRegCoilsBuf, usBitOffset,
								(unsigned char)((iNCoils > 8) ? 8 : iNCoils)
				);
				usBitOffset += 8;
     702:	08 5f       	subi	r16, 0xF8	; 248
     704:	1f 4f       	sbci	r17, 0xFF	; 255
				iNCoils -= 8;
     706:	28 97       	sbiw	r28, 0x08	; 8
		/*
			Read current values and pass to protocol stack.
			MB_FUNC_READ_COILS						( 1 )
		*/
		case MB_REG_READ:
			while( iNCoils > 0 ) {
     708:	1c 16       	cp	r1, r28
     70a:	1d 06       	cpc	r1, r29
     70c:	5c f3       	brlt	.-42     	; 0x6e4 <eMBRegCoilsCB+0x36>
     70e:	16 c0       	rjmp	.+44     	; 0x73c <eMBRegCoilsCB+0x8e>
		 	MB_FUNC_WRITE_SINGLE_COIL				( 5 )
			MB_FUNC_WRITE_MULTIPLE_COILS			( 15 )
		 */
		 case MB_REG_WRITE:
		 	while( iNCoils > 0 ) {
				xMBUtilSetBits( ucRegCoilsBuf, usBitOffset,
     710:	f7 01       	movw	r30, r14
     712:	21 91       	ld	r18, Z+
     714:	7f 01       	movw	r14, r30
     716:	ae 01       	movw	r20, r28
     718:	c9 30       	cpi	r28, 0x09	; 9
     71a:	d1 05       	cpc	r29, r1
     71c:	14 f0       	brlt	.+4      	; 0x722 <eMBRegCoilsCB+0x74>
     71e:	48 e0       	ldi	r20, 0x08	; 8
     720:	50 e0       	ldi	r21, 0x00	; 0
     722:	82 e4       	ldi	r24, 0x42	; 66
     724:	93 e0       	ldi	r25, 0x03	; 3
     726:	b8 01       	movw	r22, r16
     728:	50 e0       	ldi	r21, 0x00	; 0
     72a:	30 e0       	ldi	r19, 0x00	; 0
     72c:	0e 94 10 0d 	call	0x1a20	; 0x1a20 <xMBUtilSetBits>
								(unsigned char)((iNCoils > 8) ? 8 : iNCoils),
								*pucRegBuffer++
				);
				usBitOffset += 8;
     730:	08 5f       	subi	r16, 0xF8	; 248
     732:	1f 4f       	sbci	r17, 0xFF	; 255
				iNCoils -= 8;
     734:	28 97       	sbiw	r28, 0x08	; 8
		 	Update current register values.
		 	MB_FUNC_WRITE_SINGLE_COIL				( 5 )
			MB_FUNC_WRITE_MULTIPLE_COILS			( 15 )
		 */
		 case MB_REG_WRITE:
		 	while( iNCoils > 0 ) {
     736:	1c 16       	cp	r1, r28
     738:	1d 06       	cpc	r1, r29
     73a:	54 f3       	brlt	.-44     	; 0x710 <eMBRegCoilsCB+0x62>
				);
				usBitOffset += 8;
				iNCoils -= 8;
			}

			uiModbusTimeOutCounter = uiRegHolding[18];
     73c:	80 91 ce 01 	lds	r24, 0x01CE
     740:	90 91 cf 01 	lds	r25, 0x01CF
     744:	90 93 a9 01 	sts	0x01A9, r25
     748:	80 93 a8 01 	sts	0x01A8, r24
     74c:	80 e0       	ldi	r24, 0x00	; 0
     74e:	01 c0       	rjmp	.+2      	; 0x752 <eMBRegCoilsCB+0xa4>
		 return MB_ENOERR;
     750:	81 e0       	ldi	r24, 0x01	; 1
		}
	}
	
	return MB_ENOREG;
}
     752:	df 91       	pop	r29
     754:	cf 91       	pop	r28
     756:	1f 91       	pop	r17
     758:	0f 91       	pop	r16
     75a:	ff 90       	pop	r15
     75c:	ef 90       	pop	r14
     75e:	08 95       	ret

00000760 <veznaEepRestoreUartSetings>:
{
	initRS485( 9600, 8, 1, 0 );
}

void veznaEepRestoreUartSetings( void *lpObject )
{
     760:	0f 93       	push	r16
	initRS485( 115200, 8, 1, 1 );
     762:	60 e0       	ldi	r22, 0x00	; 0
     764:	72 ec       	ldi	r23, 0xC2	; 194
     766:	81 e0       	ldi	r24, 0x01	; 1
     768:	90 e0       	ldi	r25, 0x00	; 0
     76a:	48 e0       	ldi	r20, 0x08	; 8
     76c:	21 e0       	ldi	r18, 0x01	; 1
     76e:	01 e0       	ldi	r16, 0x01	; 1
     770:	0e 94 fe 16 	call	0x2dfc	; 0x2dfc <initRS485>
}
     774:	0f 91       	pop	r16
     776:	08 95       	ret

00000778 <veznaEepSetUartSetings>:
{
	uiModbusTimeOutCounter = uiRegHolding[18];
}

void veznaEepSetUartSetings( void *lpObject )
{
     778:	0f 93       	push	r16
	initRS485( 9600, 8, 1, 0 );
     77a:	60 e8       	ldi	r22, 0x80	; 128
     77c:	75 e2       	ldi	r23, 0x25	; 37
     77e:	80 e0       	ldi	r24, 0x00	; 0
     780:	90 e0       	ldi	r25, 0x00	; 0
     782:	48 e0       	ldi	r20, 0x08	; 8
     784:	21 e0       	ldi	r18, 0x01	; 1
     786:	00 e0       	ldi	r16, 0x00	; 0
     788:	0e 94 fe 16 	call	0x2dfc	; 0x2dfc <initRS485>
}
     78c:	0f 91       	pop	r16
     78e:	08 95       	ret

00000790 <main>:
volatile uint8_t ucRegDiscBufA3Temp[2];

/* ----------------------- Start implementation -----------------------------*/

int main(void)
{
     790:	3f 92       	push	r3
     792:	4f 92       	push	r4
     794:	5f 92       	push	r5
     796:	6f 92       	push	r6
     798:	7f 92       	push	r7
     79a:	8f 92       	push	r8
     79c:	9f 92       	push	r9
     79e:	af 92       	push	r10
     7a0:	bf 92       	push	r11
     7a2:	cf 92       	push	r12
     7a4:	df 92       	push	r13
     7a6:	ef 92       	push	r14
     7a8:	ff 92       	push	r15
     7aa:	0f 93       	push	r16
     7ac:	1f 93       	push	r17
     7ae:	df 93       	push	r29
     7b0:	cf 93       	push	r28
     7b2:	cd b7       	in	r28, 0x3d	; 61
     7b4:	de b7       	in	r29, 0x3e	; 62
     7b6:	29 97       	sbiw	r28, 0x09	; 9
     7b8:	0f b6       	in	r0, 0x3f	; 63
     7ba:	f8 94       	cli
     7bc:	de bf       	out	0x3e, r29	; 62
     7be:	0f be       	out	0x3f, r0	; 63
     7c0:	cd bf       	out	0x3d, r28	; 61
	uint8_t fFirstRun = 1, ucRS485_address, ucRS485_address_old = 0;
	UCHAR ucSlaveID[] = { 0xAA, 0xBB, 0xCC };
     7c2:	de 01       	movw	r26, r28
     7c4:	17 96       	adiw	r26, 0x07	; 7
     7c6:	e0 e0       	ldi	r30, 0x00	; 0
     7c8:	f1 e0       	ldi	r31, 0x01	; 1
     7ca:	83 e0       	ldi	r24, 0x03	; 3
     7cc:	01 90       	ld	r0, Z+
     7ce:	0d 92       	st	X+, r0
     7d0:	81 50       	subi	r24, 0x01	; 1
     7d2:	e1 f7       	brne	.-8      	; 0x7cc <main+0x3c>
	eMBErrorCode eStatus;
	uint16_t remote_run = 0, flashTimer = 0;
     7d4:	1e 82       	std	Y+6, r1	; 0x06
     7d6:	1d 82       	std	Y+5, r1	; 0x05

	volatile uint8_t ucTrigOutError = 0, ucTrigOut0Error = 0, ucTrigOut1Error = 0;
     7d8:	19 82       	std	Y+1, r1	; 0x01
     7da:	1a 82       	std	Y+2, r1	; 0x02
     7dc:	1b 82       	std	Y+3, r1	; 0x03
	volatile uint8_t ucTrigTimeOutError = 0;
     7de:	1c 82       	std	Y+4, r1	; 0x04

	uint8_t ucAutoStopIfOutError = 1;
	uint8_t i, n;

	initBoard();
     7e0:	0e 94 36 02 	call	0x46c	; 0x46c <initBoard>
	
	rs485TaskInit();
     7e4:	0e 94 80 16 	call	0x2d00	; 0x2d00 <rs485TaskInit>

	///////////////////////////////////////////////////////////////////////////

	rs485ChannelDefInit( &arrRS485Channel[0] );
     7e8:	87 e3       	ldi	r24, 0x37	; 55
     7ea:	95 e0       	ldi	r25, 0x05	; 5
     7ec:	0e 94 d4 16 	call	0x2da8	; 0x2da8 <rs485ChannelDefInit>

	stSlaveChannelWriteCoilsA11.address = 11;
     7f0:	bb e0       	ldi	r27, 0x0B	; 11
     7f2:	4b 2e       	mov	r4, r27
     7f4:	40 92 01 06 	sts	0x0601, r4
	stSlaveChannelWriteCoilsA11.coils_address = 11;
     7f8:	40 92 04 06 	sts	0x0604, r4
	stSlaveChannelWriteCoilsA11.lpCoils = (uint8_t*)&inPort[15];
     7fc:	88 e4       	ldi	r24, 0x48	; 72
     7fe:	91 e0       	ldi	r25, 0x01	; 1
     800:	90 93 03 06 	sts	0x0603, r25
     804:	80 93 02 06 	sts	0x0602, r24

	arrRS485Channel[0].lpData = (void*)&stSlaveChannelWriteCoilsA11;
     808:	60 e0       	ldi	r22, 0x00	; 0
     80a:	76 e0       	ldi	r23, 0x06	; 6
     80c:	70 93 38 05 	sts	0x0538, r23
     810:	60 93 37 05 	sts	0x0537, r22
	arrRS485Channel[0].ucEnableRequest = 1;
     814:	55 24       	eor	r5, r5
     816:	53 94       	inc	r5
     818:	50 92 3b 05 	sts	0x053B, r5
	arrRS485Channel[0].msReadTimeOut = 8;
     81c:	a8 e0       	ldi	r26, 0x08	; 8
     81e:	6a 2e       	mov	r6, r26
     820:	71 2c       	mov	r7, r1
     822:	70 92 3a 05 	sts	0x053A, r7
     826:	60 92 39 05 	sts	0x0539, r6

	arrRS485Channel[0].rs485SendRequestFunc = mbSendRequestForceSingleCoil;
     82a:	86 e8       	ldi	r24, 0x86	; 134
     82c:	94 e1       	ldi	r25, 0x14	; 20
     82e:	90 93 47 05 	sts	0x0547, r25
     832:	80 93 46 05 	sts	0x0546, r24
	arrRS485Channel[0].rs485GetResponseFunc = mbReceiveRequestForceSingleCoil;		
     836:	86 e4       	ldi	r24, 0x46	; 70
     838:	93 e1       	ldi	r25, 0x13	; 19
     83a:	90 93 49 05 	sts	0x0549, r25
     83e:	80 93 48 05 	sts	0x0548, r24
	arrRS485Channel[0].rs485SetTimeOutError = rs485SetTimeOutErrorNullFunc;
     842:	8c ef       	ldi	r24, 0xFC	; 252
     844:	96 e1       	ldi	r25, 0x16	; 22
     846:	90 93 3f 05 	sts	0x053F, r25
     84a:	80 93 3e 05 	sts	0x053E, r24
	arrRS485Channel[0].rs485ClrTimeOutError = mbMasterClrTimeOutError;
     84e:	f7 e6       	ldi	r31, 0x67	; 103
     850:	8f 2e       	mov	r8, r31
     852:	f1 e0       	ldi	r31, 0x01	; 1
     854:	9f 2e       	mov	r9, r31
     856:	90 92 41 05 	sts	0x0541, r9
     85a:	80 92 40 05 	sts	0x0540, r8

	//rs485AddChannel( &arrRS485Channel[0] );

	///////////////////////////////////////////////////////////////////////////

	rs485ChannelDefInit( &arrRS485Channel[1] );
     85e:	8a e4       	ldi	r24, 0x4A	; 74
     860:	95 e0       	ldi	r25, 0x05	; 5
     862:	0e 94 d4 16 	call	0x2da8	; 0x2da8 <rs485ChannelDefInit>

	stSlaveChannelReadInputsA3.address = 3;
     866:	e3 e0       	ldi	r30, 0x03	; 3
     868:	3e 2e       	mov	r3, r30
     86a:	30 92 20 05 	sts	0x0520, r3
	stSlaveChannelReadInputsA3.inputs_address = 0;
     86e:	10 92 23 05 	sts	0x0523, r1
	stSlaveChannelReadInputsA3.inputs_number = 10;
     872:	7a e0       	ldi	r23, 0x0A	; 10
     874:	c7 2e       	mov	r12, r23
     876:	d1 2c       	mov	r13, r1
     878:	d0 92 25 05 	sts	0x0525, r13
     87c:	c0 92 24 05 	sts	0x0524, r12
	stSlaveChannelReadInputsA3.lpInputs = (uint8_t*)ucRegDiscBufA3;
     880:	8e ef       	ldi	r24, 0xFE	; 254
     882:	95 e0       	ldi	r25, 0x05	; 5
     884:	90 93 22 05 	sts	0x0522, r25
     888:	80 93 21 05 	sts	0x0521, r24

	arrRS485Channel[1].lpData = (void*)&stSlaveChannelReadInputsA3;
     88c:	8f e1       	ldi	r24, 0x1F	; 31
     88e:	95 e0       	ldi	r25, 0x05	; 5
     890:	90 93 4b 05 	sts	0x054B, r25
     894:	80 93 4a 05 	sts	0x054A, r24
	arrRS485Channel[1].ucEnableRequest = 1;
     898:	50 92 4e 05 	sts	0x054E, r5
	arrRS485Channel[1].msReadTimeOut = 8;
     89c:	70 92 4d 05 	sts	0x054D, r7
     8a0:	60 92 4c 05 	sts	0x054C, r6

	arrRS485Channel[1].rs485SendRequestFunc = mbSendRequestReadInputStatus;
     8a4:	68 eb       	ldi	r22, 0xB8	; 184
     8a6:	a6 2e       	mov	r10, r22
     8a8:	64 e1       	ldi	r22, 0x14	; 20
     8aa:	b6 2e       	mov	r11, r22
     8ac:	b0 92 5a 05 	sts	0x055A, r11
     8b0:	a0 92 59 05 	sts	0x0559, r10
	arrRS485Channel[1].rs485GetResponseFunc = mbReceiveRequestReadInputStatus;
     8b4:	0a e8       	ldi	r16, 0x8A	; 138
     8b6:	13 e1       	ldi	r17, 0x13	; 19
     8b8:	10 93 5c 05 	sts	0x055C, r17
     8bc:	00 93 5b 05 	sts	0x055B, r16
	arrRS485Channel[1].rs485ClrTimeOutError = mbMasterClrTimeOutError;
     8c0:	90 92 54 05 	sts	0x0554, r9
     8c4:	80 92 53 05 	sts	0x0553, r8

	rs485AddChannel( &arrRS485Channel[1] );
     8c8:	8a e4       	ldi	r24, 0x4A	; 74
     8ca:	95 e0       	ldi	r25, 0x05	; 5
     8cc:	0e 94 bb 16 	call	0x2d76	; 0x2d76 <rs485AddChannel>

	// - - - - - - - - - - - - - - - - - - - - - - - - - - - - - - - - - - - -

	rs485ChannelDefInit( &arrRS485Channel[2] );
     8d0:	8d e5       	ldi	r24, 0x5D	; 93
     8d2:	95 e0       	ldi	r25, 0x05	; 5
     8d4:	0e 94 d4 16 	call	0x2da8	; 0x2da8 <rs485ChannelDefInit>

	stSlaveChannelReadInputsA11.address = 11;
     8d8:	40 92 28 05 	sts	0x0528, r4
	stSlaveChannelReadInputsA11.inputs_address = 0;
     8dc:	10 92 2b 05 	sts	0x052B, r1
	stSlaveChannelReadInputsA11.inputs_number = 10;
     8e0:	d0 92 2d 05 	sts	0x052D, r13
     8e4:	c0 92 2c 05 	sts	0x052C, r12
	stSlaveChannelReadInputsA11.lpInputs = (uint8_t*)ucRegDiscBufA11;
     8e8:	59 e0       	ldi	r21, 0x09	; 9
     8ea:	e5 2e       	mov	r14, r21
     8ec:	56 e0       	ldi	r21, 0x06	; 6
     8ee:	f5 2e       	mov	r15, r21
     8f0:	f0 92 2a 05 	sts	0x052A, r15
     8f4:	e0 92 29 05 	sts	0x0529, r14

	arrRS485Channel[2].lpData = (void*)&stSlaveChannelReadInputsA11;
     8f8:	87 e2       	ldi	r24, 0x27	; 39
     8fa:	95 e0       	ldi	r25, 0x05	; 5
     8fc:	90 93 5e 05 	sts	0x055E, r25
     900:	80 93 5d 05 	sts	0x055D, r24
	arrRS485Channel[2].ucEnableRequest = 1;
     904:	50 92 61 05 	sts	0x0561, r5
	arrRS485Channel[2].msReadTimeOut = 10;
     908:	d0 92 60 05 	sts	0x0560, r13
     90c:	c0 92 5f 05 	sts	0x055F, r12

	arrRS485Channel[2].rs485SendRequestFunc = mbSendRequestReadInputStatus;
     910:	b0 92 6d 05 	sts	0x056D, r11
     914:	a0 92 6c 05 	sts	0x056C, r10
	arrRS485Channel[2].rs485GetResponseFunc = mbReceiveRequestReadInputStatus;
     918:	10 93 6f 05 	sts	0x056F, r17
     91c:	00 93 6e 05 	sts	0x056E, r16
	arrRS485Channel[2].rs485ClrTimeOutError = mbMasterClrTimeOutError;
     920:	90 92 67 05 	sts	0x0567, r9
     924:	80 92 66 05 	sts	0x0566, r8

	rs485AddChannel( &arrRS485Channel[2] );
     928:	8d e5       	ldi	r24, 0x5D	; 93
     92a:	95 e0       	ldi	r25, 0x05	; 5
     92c:	0e 94 bb 16 	call	0x2d76	; 0x2d76 <rs485AddChannel>

	///////////////////////////////////////////////////////////////////////////

	rs485ChannelDefInit( &arrRS485Channel[3] );
     930:	80 e7       	ldi	r24, 0x70	; 112
     932:	95 e0       	ldi	r25, 0x05	; 5
     934:	0e 94 d4 16 	call	0x2da8	; 0x2da8 <rs485ChannelDefInit>

	stSlaveChannelWriteCoilsA3.address = 3;
     938:	30 92 f8 05 	sts	0x05F8, r3
	stSlaveChannelWriteCoilsA3.coils_address = 0;
     93c:	10 92 fb 05 	sts	0x05FB, r1
	stSlaveChannelWriteCoilsA3.coils_number = 12;
     940:	4c e0       	ldi	r20, 0x0C	; 12
     942:	a4 2e       	mov	r10, r20
     944:	b1 2c       	mov	r11, r1
     946:	b0 92 fd 05 	sts	0x05FD, r11
     94a:	a0 92 fc 05 	sts	0x05FC, r10
	stSlaveChannelWriteCoilsA3.lpCoils = (uint8_t*)ucRegDiscBufA11;
     94e:	f0 92 fa 05 	sts	0x05FA, r15
     952:	e0 92 f9 05 	sts	0x05F9, r14

	arrRS485Channel[3].lpData = (void*)&stSlaveChannelWriteCoilsA3;
     956:	87 ef       	ldi	r24, 0xF7	; 247
     958:	95 e0       	ldi	r25, 0x05	; 5
     95a:	90 93 71 05 	sts	0x0571, r25
     95e:	80 93 70 05 	sts	0x0570, r24
	arrRS485Channel[3].ucEnableRequest = 1;
     962:	50 92 74 05 	sts	0x0574, r5
	arrRS485Channel[3].msReadTimeOut = 8;
     966:	70 92 73 05 	sts	0x0573, r7
     96a:	60 92 72 05 	sts	0x0572, r6

	arrRS485Channel[3].rs485SendRequestFunc = mbSendRequestForceMultipleCoils;
     96e:	34 ee       	ldi	r19, 0xE4	; 228
     970:	e3 2e       	mov	r14, r19
     972:	33 e1       	ldi	r19, 0x13	; 19
     974:	f3 2e       	mov	r15, r19
     976:	f0 92 80 05 	sts	0x0580, r15
     97a:	e0 92 7f 05 	sts	0x057F, r14
	arrRS485Channel[3].rs485GetResponseFunc = mbReceiveRequestForceMultipleCoils;		
     97e:	0f ed       	ldi	r16, 0xDF	; 223
     980:	12 e1       	ldi	r17, 0x12	; 18
     982:	10 93 82 05 	sts	0x0582, r17
     986:	00 93 81 05 	sts	0x0581, r16
	arrRS485Channel[3].rs485ClrTimeOutError = mbMasterClrTimeOutError;
     98a:	90 92 7a 05 	sts	0x057A, r9
     98e:	80 92 79 05 	sts	0x0579, r8

	rs485AddChannel( &arrRS485Channel[3] );
     992:	80 e7       	ldi	r24, 0x70	; 112
     994:	95 e0       	ldi	r25, 0x05	; 5
     996:	0e 94 bb 16 	call	0x2d76	; 0x2d76 <rs485AddChannel>
	
	// - - - - - - - - - - - - - - - - - - - - - - - - - - - - - - - - - - - -
	
	rs485ChannelDefInit( &arrRS485Channel[4] );
     99a:	83 e8       	ldi	r24, 0x83	; 131
     99c:	95 e0       	ldi	r25, 0x05	; 5
     99e:	0e 94 d4 16 	call	0x2da8	; 0x2da8 <rs485ChannelDefInit>

	stSlaveChannelWriteCoilsA11.address = 11;
     9a2:	40 92 01 06 	sts	0x0601, r4
	stSlaveChannelWriteCoilsA11.coils_address = 0;
     9a6:	10 92 04 06 	sts	0x0604, r1
	stSlaveChannelWriteCoilsA11.coils_number = 12;
     9aa:	b0 92 06 06 	sts	0x0606, r11
     9ae:	a0 92 05 06 	sts	0x0605, r10
	stSlaveChannelWriteCoilsA11.lpCoils = (uint8_t*)ucRegDiscBufA3Temp;
     9b2:	87 e0       	ldi	r24, 0x07	; 7
     9b4:	96 e0       	ldi	r25, 0x06	; 6
     9b6:	90 93 03 06 	sts	0x0603, r25
     9ba:	80 93 02 06 	sts	0x0602, r24

	arrRS485Channel[4].lpData = (void*)&stSlaveChannelWriteCoilsA11;
     9be:	80 e0       	ldi	r24, 0x00	; 0
     9c0:	96 e0       	ldi	r25, 0x06	; 6
     9c2:	90 93 84 05 	sts	0x0584, r25
     9c6:	80 93 83 05 	sts	0x0583, r24
	arrRS485Channel[4].ucEnableRequest = 1;
     9ca:	50 92 87 05 	sts	0x0587, r5
	arrRS485Channel[4].msReadTimeOut = 10;
     9ce:	d0 92 86 05 	sts	0x0586, r13
     9d2:	c0 92 85 05 	sts	0x0585, r12

	arrRS485Channel[4].rs485SendRequestFunc = mbSendRequestForceMultipleCoils;
     9d6:	f0 92 93 05 	sts	0x0593, r15
     9da:	e0 92 92 05 	sts	0x0592, r14
	arrRS485Channel[4].rs485GetResponseFunc = mbReceiveRequestForceMultipleCoils;		
     9de:	10 93 95 05 	sts	0x0595, r17
     9e2:	00 93 94 05 	sts	0x0594, r16
	arrRS485Channel[4].rs485ClrTimeOutError = mbMasterClrTimeOutError;
     9e6:	90 92 8d 05 	sts	0x058D, r9
     9ea:	80 92 8c 05 	sts	0x058C, r8

	rs485AddChannel( &arrRS485Channel[4] );
     9ee:	83 e8       	ldi	r24, 0x83	; 131
     9f0:	95 e0       	ldi	r25, 0x05	; 5
     9f2:	0e 94 bb 16 	call	0x2d76	; 0x2d76 <rs485AddChannel>

	///////////////////////////////////////////////////////////////////////////

	rs485ChannelDefInit( &arrRS485Channel[5] );
     9f6:	86 e9       	ldi	r24, 0x96	; 150
     9f8:	95 e0       	ldi	r25, 0x05	; 5
     9fa:	0e 94 d4 16 	call	0x2da8	; 0x2da8 <rs485ChannelDefInit>

	stSlaveChannelPresetRegisterA10.address = 11;
     9fe:	40 92 30 05 	sts	0x0530, r4
	stSlaveChannelPresetRegisterA10.register_address = 15;
     a02:	8f e0       	ldi	r24, 0x0F	; 15
     a04:	90 e0       	ldi	r25, 0x00	; 0
     a06:	90 93 32 05 	sts	0x0532, r25
     a0a:	80 93 31 05 	sts	0x0531, r24
	stSlaveChannelPresetRegisterA10.lpRegister = &remote_run;
     a0e:	ce 01       	movw	r24, r28
     a10:	05 96       	adiw	r24, 0x05	; 5
     a12:	90 93 34 05 	sts	0x0534, r25
     a16:	80 93 33 05 	sts	0x0533, r24
	stSlaveChannelPresetRegisterA10.lpRegisterNew = NULL;
     a1a:	10 92 36 05 	sts	0x0536, r1
     a1e:	10 92 35 05 	sts	0x0535, r1

	arrRS485Channel[5].lpData = (void*)&stSlaveChannelPresetRegisterA10;
     a22:	8f e2       	ldi	r24, 0x2F	; 47
     a24:	95 e0       	ldi	r25, 0x05	; 5
     a26:	90 93 97 05 	sts	0x0597, r25
     a2a:	80 93 96 05 	sts	0x0596, r24
	arrRS485Channel[5].ucEnableRequest = 1;
     a2e:	50 92 9a 05 	sts	0x059A, r5
	arrRS485Channel[5].msReadTimeOut = 8;
     a32:	70 92 99 05 	sts	0x0599, r7
     a36:	60 92 98 05 	sts	0x0598, r6

	arrRS485Channel[5].rs485SendRequestFunc = mbSendRequestPresetSingleRegister;
     a3a:	8a e4       	ldi	r24, 0x4A	; 74
     a3c:	94 e1       	ldi	r25, 0x14	; 20
     a3e:	90 93 a6 05 	sts	0x05A6, r25
     a42:	80 93 a5 05 	sts	0x05A5, r24
	arrRS485Channel[5].rs485GetResponseFunc = mbReceiveRequestPresetSingleRegister;
     a46:	80 e0       	ldi	r24, 0x00	; 0
     a48:	93 e1       	ldi	r25, 0x13	; 19
     a4a:	90 93 a8 05 	sts	0x05A8, r25
     a4e:	80 93 a7 05 	sts	0x05A7, r24
	arrRS485Channel[5].rs485ClrTimeOutError = mbMasterClrTimeOutError;
     a52:	90 92 a0 05 	sts	0x05A0, r9
     a56:	80 92 9f 05 	sts	0x059F, r8

	rs485AddChannel( &arrRS485Channel[5] );
     a5a:	86 e9       	ldi	r24, 0x96	; 150
     a5c:	95 e0       	ldi	r25, 0x05	; 5
     a5e:	0e 94 bb 16 	call	0x2d76	; 0x2d76 <rs485AddChannel>

	//rs485AddChannel( &arrRS485Channel[6] );*/

	///////////////////////////////////////////////////////////////////////////

	sei();
     a62:	78 94       	sei
     a64:	11 e0       	ldi	r17, 0x01	; 1
     a66:	00 e0       	ldi	r16, 0x00	; 0
     a68:	44 24       	eor	r4, r4
     a6a:	55 24       	eor	r5, r5
	while( 1 ) {
		readDigitalInput( (uint8_t*)inPort );

		ucTrigOut0Error |= ( !MCU_DO_DIAG0 && MCU_VCC_FB0 ); // !MCU_DO_DIAG0_bm && MCU_VCC_FB0_bm
     a6c:	aa 24       	eor	r10, r10
     a6e:	a3 94       	inc	r10

			eStatus = eMBDisable();

			if( !rs485TaskIsEnable() ) {
				eStatus = eMBInit( MB_RTU, ucRS485_address, 0, 115200/2, MB_PAR_EVEN );
				eStatus = eMBSetSlaveID( 0x34, TRUE, ucSlaveID, 3 );
     a70:	27 e0       	ldi	r18, 0x07	; 7
     a72:	82 2e       	mov	r8, r18
     a74:	91 2c       	mov	r9, r1
     a76:	8c 0e       	add	r8, r28
     a78:	9d 1e       	adc	r9, r29

	///////////////////////////////////////////////////////////////////////////

	sei();
	while( 1 ) {
		readDigitalInput( (uint8_t*)inPort );
     a7a:	89 e3       	ldi	r24, 0x39	; 57
     a7c:	91 e0       	ldi	r25, 0x01	; 1
     a7e:	0e 94 28 11 	call	0x2250	; 0x2250 <readDigitalInput>

		ucTrigOut0Error |= ( !MCU_DO_DIAG0 && MCU_VCC_FB0 ); // !MCU_DO_DIAG0_bm && MCU_VCC_FB0_bm
     a82:	2a 81       	ldd	r18, Y+2	; 0x02
     a84:	80 91 4f 01 	lds	r24, 0x014F
     a88:	88 23       	and	r24, r24
     a8a:	19 f0       	breq	.+6      	; 0xa92 <main+0x302>
     a8c:	80 e0       	ldi	r24, 0x00	; 0
     a8e:	90 e0       	ldi	r25, 0x00	; 0
     a90:	08 c0       	rjmp	.+16     	; 0xaa2 <main+0x312>
     a92:	80 91 4d 01 	lds	r24, 0x014D
     a96:	90 e0       	ldi	r25, 0x00	; 0
     a98:	88 23       	and	r24, r24
     a9a:	09 f4       	brne	.+2      	; 0xa9e <main+0x30e>
     a9c:	91 e0       	ldi	r25, 0x01	; 1
     a9e:	9a 25       	eor	r25, r10
     aa0:	89 2f       	mov	r24, r25
     aa2:	28 2b       	or	r18, r24
     aa4:	2a 83       	std	Y+2, r18	; 0x02
		ucTrigOut1Error |= ( !MCU_DO_DIAG1 && MCU_VCC_FB1 ); // !MCU_DO_DIAG1_bm && MCU_VCC_FB1_bm
     aa6:	2b 81       	ldd	r18, Y+3	; 0x03
     aa8:	80 91 50 01 	lds	r24, 0x0150
     aac:	88 23       	and	r24, r24
     aae:	19 f0       	breq	.+6      	; 0xab6 <main+0x326>
     ab0:	80 e0       	ldi	r24, 0x00	; 0
     ab2:	90 e0       	ldi	r25, 0x00	; 0
     ab4:	08 c0       	rjmp	.+16     	; 0xac6 <main+0x336>
     ab6:	80 91 4e 01 	lds	r24, 0x014E
     aba:	90 e0       	ldi	r25, 0x00	; 0
     abc:	88 23       	and	r24, r24
     abe:	09 f4       	brne	.+2      	; 0xac2 <main+0x332>
     ac0:	91 e0       	ldi	r25, 0x01	; 1
     ac2:	9a 25       	eor	r25, r10
     ac4:	89 2f       	mov	r24, r25
     ac6:	28 2b       	or	r18, r24
     ac8:	2b 83       	std	Y+3, r18	; 0x03
		ucTrigOutError	|= ( ucTrigOut1Error || ucTrigOut0Error );
     aca:	99 81       	ldd	r25, Y+1	; 0x01
     acc:	8b 81       	ldd	r24, Y+3	; 0x03
     ace:	88 23       	and	r24, r24
     ad0:	29 f4       	brne	.+10     	; 0xadc <main+0x34c>
     ad2:	8a 81       	ldd	r24, Y+2	; 0x02
     ad4:	20 e0       	ldi	r18, 0x00	; 0
     ad6:	30 e0       	ldi	r19, 0x00	; 0
     ad8:	88 23       	and	r24, r24
     ada:	11 f0       	breq	.+4      	; 0xae0 <main+0x350>
     adc:	21 e0       	ldi	r18, 0x01	; 1
     ade:	30 e0       	ldi	r19, 0x00	; 0
     ae0:	92 2b       	or	r25, r18
     ae2:	99 83       	std	Y+1, r25	; 0x01

		ucTrigTimeOutError |= ucFlagTimeOutOutError;
     ae4:	9c 81       	ldd	r25, Y+4	; 0x04
     ae6:	80 91 a7 01 	lds	r24, 0x01A7
     aea:	89 2b       	or	r24, r25
     aec:	8c 83       	std	Y+4, r24	; 0x04

		inPort[25] = isRun;
     aee:	80 91 38 01 	lds	r24, 0x0138
     af2:	80 93 52 01 	sts	0x0152, r24
		inPort[26] = ucTrigOut0Error;
     af6:	8a 81       	ldd	r24, Y+2	; 0x02
     af8:	80 93 53 01 	sts	0x0153, r24
		inPort[27] = ucTrigOut1Error;
     afc:	8b 81       	ldd	r24, Y+3	; 0x03
     afe:	80 93 54 01 	sts	0x0154, r24
		inPort[28] = ucTrigTimeOutError;
     b02:	8c 81       	ldd	r24, Y+4	; 0x04
     b04:	80 93 55 01 	sts	0x0155, r24
		inPort[29] = ucTrigOutError;
     b08:	89 81       	ldd	r24, Y+1	; 0x01
     b0a:	80 93 56 01 	sts	0x0156, r24
		inPort[30] = uiRegHolding[18] ? 1 : 0;
     b0e:	80 91 ce 01 	lds	r24, 0x01CE
     b12:	90 91 cf 01 	lds	r25, 0x01CF
     b16:	20 e0       	ldi	r18, 0x00	; 0
     b18:	89 2b       	or	r24, r25
     b1a:	09 f0       	breq	.+2      	; 0xb1e <main+0x38e>
     b1c:	21 e0       	ldi	r18, 0x01	; 1
     b1e:	20 93 57 01 	sts	0x0157, r18

		//=====================================================================

		ucRS485_address = readAddressSwitch();
     b22:	0e 94 af 11 	call	0x235e	; 0x235e <readAddressSwitch>
     b26:	c8 2e       	mov	r12, r24

		if( fFirstRun || ( ucRS485_address != ucRS485_address_old ) ) {
     b28:	11 23       	and	r17, r17
     b2a:	11 f4       	brne	.+4      	; 0xb30 <main+0x3a0>
     b2c:	80 17       	cp	r24, r16
     b2e:	91 f1       	breq	.+100    	; 0xb94 <main+0x404>
			ucRS485_address_old = ucRS485_address;

			if( !ucRS485_address ) {
     b30:	cc 20       	and	r12, r12
     b32:	19 f4       	brne	.+6      	; 0xb3a <main+0x3aa>
				rs485TaskEnable();
     b34:	0e 94 76 16 	call	0x2cec	; 0x2cec <rs485TaskEnable>
     b38:	02 c0       	rjmp	.+4      	; 0xb3e <main+0x3ae>
			} else {
				rs485TaskDisable();
     b3a:	0e 94 7a 16 	call	0x2cf4	; 0x2cf4 <rs485TaskDisable>
			}

			eStatus = eMBDisable();
     b3e:	0e 94 f5 0f 	call	0x1fea	; 0x1fea <eMBDisable>

			if( !rs485TaskIsEnable() ) {
     b42:	0e 94 7d 16 	call	0x2cfa	; 0x2cfa <rs485TaskIsEnable>
     b46:	88 23       	and	r24, r24
     b48:	b9 f4       	brne	.+46     	; 0xb78 <main+0x3e8>
				eStatus = eMBInit( MB_RTU, ucRS485_address, 0, 115200/2, MB_PAR_EVEN );
     b4a:	6c 2d       	mov	r22, r12
     b4c:	40 e0       	ldi	r20, 0x00	; 0
     b4e:	00 e0       	ldi	r16, 0x00	; 0
     b50:	11 ee       	ldi	r17, 0xE1	; 225
     b52:	20 e0       	ldi	r18, 0x00	; 0
     b54:	30 e0       	ldi	r19, 0x00	; 0
     b56:	92 e0       	ldi	r25, 0x02	; 2
     b58:	e9 2e       	mov	r14, r25
     b5a:	0e 94 94 10 	call	0x2128	; 0x2128 <eMBInit>
				eStatus = eMBSetSlaveID( 0x34, TRUE, ucSlaveID, 3 );
     b5e:	84 e3       	ldi	r24, 0x34	; 52
     b60:	61 e0       	ldi	r22, 0x01	; 1
     b62:	a4 01       	movw	r20, r8
     b64:	23 e0       	ldi	r18, 0x03	; 3
     b66:	30 e0       	ldi	r19, 0x00	; 0
     b68:	0e 94 e0 0c 	call	0x19c0	; 0x19c0 <eMBSetSlaveID>
				eStatus = eMBEnable();
     b6c:	0e 94 e6 0f 	call	0x1fcc	; 0x1fcc <eMBEnable>
				ucRegCoilsBuf[2] &= ~1;
     b70:	80 91 44 03 	lds	r24, 0x0344
     b74:	8e 7f       	andi	r24, 0xFE	; 254
     b76:	0c c0       	rjmp	.+24     	; 0xb90 <main+0x400>
			} else {
				initRS485( 115200, 8, 1, 1 );
     b78:	60 e0       	ldi	r22, 0x00	; 0
     b7a:	72 ec       	ldi	r23, 0xC2	; 194
     b7c:	81 e0       	ldi	r24, 0x01	; 1
     b7e:	90 e0       	ldi	r25, 0x00	; 0
     b80:	48 e0       	ldi	r20, 0x08	; 8
     b82:	21 e0       	ldi	r18, 0x01	; 1
     b84:	01 e0       	ldi	r16, 0x01	; 1
     b86:	0e 94 fe 16 	call	0x2dfc	; 0x2dfc <initRS485>
				ucRegCoilsBuf[2] |= 1;
     b8a:	80 91 44 03 	lds	r24, 0x0344
     b8e:	81 60       	ori	r24, 0x01	; 1
     b90:	80 93 44 03 	sts	0x0344, r24
			}
		}

		//=====================================================================

		if( uc10msTimerEvent ) {
     b94:	80 91 a1 01 	lds	r24, 0x01A1
     b98:	88 23       	and	r24, r24
     b9a:	81 f0       	breq	.+32     	; 0xbbc <main+0x42c>
			static uint8_t n = 0;

			uc10msTimerEvent = 0;
     b9c:	10 92 a1 01 	sts	0x01A1, r1

			if( ++n == 50 ) {
     ba0:	80 91 5a 03 	lds	r24, 0x035A
     ba4:	8f 5f       	subi	r24, 0xFF	; 255
     ba6:	80 93 5a 03 	sts	0x035A, r24
     baa:	82 33       	cpi	r24, 0x32	; 50
     bac:	39 f4       	brne	.+14     	; 0xbbc <main+0x42c>
				ucRegDiscBufA3Temp[0] ^= 1;
     bae:	80 91 07 06 	lds	r24, 0x0607
     bb2:	8a 25       	eor	r24, r10
     bb4:	80 93 07 06 	sts	0x0607, r24
				n = 0;
     bb8:	10 92 5a 03 	sts	0x035A, r1
			}
		}

		if( uc100msTimerEvent ) {
     bbc:	80 91 a2 01 	lds	r24, 0x01A2
     bc0:	88 23       	and	r24, r24
     bc2:	11 f0       	breq	.+4      	; 0xbc8 <main+0x438>
			uc100msTimerEvent = 0;
     bc4:	10 92 a2 01 	sts	0x01A2, r1
		}

		if( uc500msTimerEvent ) {
     bc8:	80 91 a3 01 	lds	r24, 0x01A3
     bcc:	90 91 a4 01 	lds	r25, 0x01A4
     bd0:	89 2b       	or	r24, r25
     bd2:	59 f0       	breq	.+22     	; 0xbea <main+0x45a>
			uc500msTimerEvent = 0;
     bd4:	10 92 a4 01 	sts	0x01A4, r1
     bd8:	10 92 a3 01 	sts	0x01A3, r1

			flashTimer = !flashTimer;
     bdc:	80 e0       	ldi	r24, 0x00	; 0
     bde:	90 e0       	ldi	r25, 0x00	; 0
     be0:	45 28       	or	r4, r5
     be2:	11 f4       	brne	.+4      	; 0xbe8 <main+0x458>
     be4:	81 e0       	ldi	r24, 0x01	; 1
     be6:	90 e0       	ldi	r25, 0x00	; 0
     be8:	2c 01       	movw	r4, r24
		}

		if( uc1000msTimerEvent ) {
     bea:	80 91 a5 01 	lds	r24, 0x01A5
     bee:	90 91 a6 01 	lds	r25, 0x01A6
     bf2:	89 2b       	or	r24, r25
     bf4:	21 f0       	breq	.+8      	; 0xbfe <main+0x46e>
			uc1000msTimerEvent = 0;
     bf6:	10 92 a6 01 	sts	0x01A6, r1
     bfa:	10 92 a5 01 	sts	0x01A5, r1
		}

		//=====================================================================

		byteArrToBitArr( (uint8_t*)ucRegDiscBuf, (uint8_t*)inPort, 42 );
     bfe:	8e e4       	ldi	r24, 0x4E	; 78
     c00:	93 e0       	ldi	r25, 0x03	; 3
     c02:	69 e3       	ldi	r22, 0x39	; 57
     c04:	71 e0       	ldi	r23, 0x01	; 1
     c06:	4a e2       	ldi	r20, 0x2A	; 42
     c08:	50 e0       	ldi	r21, 0x00	; 0
     c0a:	0e 94 f2 01 	call	0x3e4	; 0x3e4 <byteArrToBitArr>

		//=====================================================================

		if( !rs485TaskIsEnable() ) {
     c0e:	0e 94 7d 16 	call	0x2cfa	; 0x2cfa <rs485TaskIsEnable>
     c12:	88 23       	and	r24, r24
     c14:	19 f4       	brne	.+6      	; 0xc1c <main+0x48c>
			eMBPoll();
     c16:	0e 94 09 10 	call	0x2012	; 0x2012 <eMBPoll>
     c1a:	18 c0       	rjmp	.+48     	; 0xc4c <main+0x4bc>
		} else {
			uint8_t temp;

			ucRegCoilsBuf[2] |= 1;
     c1c:	80 91 44 03 	lds	r24, 0x0344
     c20:	81 60       	ori	r24, 0x01	; 1
     c22:	80 93 44 03 	sts	0x0344, r24
			remote_run = isRun;
     c26:	80 91 38 01 	lds	r24, 0x0138
     c2a:	8d 83       	std	Y+5, r24	; 0x05
     c2c:	1e 82       	std	Y+6, r1	; 0x06

			rs485Task();
     c2e:	0e 94 08 15 	call	0x2a10	; 0x2a10 <rs485Task>

			temp  = ( ~1 & ucRegDiscBufA3[0] );
     c32:	90 91 fe 05 	lds	r25, 0x05FE
			temp |= ( 1 & ucRegDiscBufA3Temp[0] );
     c36:	80 91 07 06 	lds	r24, 0x0607
     c3a:	81 70       	andi	r24, 0x01	; 1
     c3c:	9e 7f       	andi	r25, 0xFE	; 254
     c3e:	89 2b       	or	r24, r25

			ucRegDiscBufA3Temp[0] = temp;
     c40:	80 93 07 06 	sts	0x0607, r24
			ucRegDiscBufA3Temp[1] = ucRegDiscBufA3[1];
     c44:	80 91 ff 05 	lds	r24, 0x05FF
     c48:	80 93 08 06 	sts	0x0608, r24
		}

		//=====================================================================

		if( !MCU_RUN_SWITCH || ucTrigTimeOutError || ( ucAutoStopIfOutError && ucTrigOutError ) ) {
     c4c:	80 91 51 01 	lds	r24, 0x0151
     c50:	88 23       	and	r24, r24
     c52:	31 f0       	breq	.+12     	; 0xc60 <main+0x4d0>
     c54:	8c 81       	ldd	r24, Y+4	; 0x04
     c56:	88 23       	and	r24, r24
     c58:	19 f4       	brne	.+6      	; 0xc60 <main+0x4d0>
     c5a:	89 81       	ldd	r24, Y+1	; 0x01
     c5c:	88 23       	and	r24, r24
     c5e:	29 f0       	breq	.+10     	; 0xc6a <main+0x4da>
			ucRegCoilsBuf[2] &= ~1; // Clear QOIL_REMOTE_RUN
     c60:	80 91 44 03 	lds	r24, 0x0344
     c64:	8e 7f       	andi	r24, 0xFE	; 254
     c66:	80 93 44 03 	sts	0x0344, r24
		}

		if( !MCU_RUN_SWITCH || !QOIL_REMOTE_RUN ) {
     c6a:	80 91 51 01 	lds	r24, 0x0151
     c6e:	88 23       	and	r24, r24
     c70:	21 f0       	breq	.+8      	; 0xc7a <main+0x4ea>
     c72:	80 91 69 01 	lds	r24, 0x0169
     c76:	88 23       	and	r24, r24
     c78:	91 f4       	brne	.+36     	; 0xc9e <main+0x50e>
			if( !QOIL_DISABLE_OUTPUT_RESET_IN_RUN || ucTrigOutError || ucTrigTimeOutError ) {
     c7a:	80 91 6b 01 	lds	r24, 0x016B
     c7e:	88 23       	and	r24, r24
     c80:	31 f0       	breq	.+12     	; 0xc8e <main+0x4fe>
     c82:	89 81       	ldd	r24, Y+1	; 0x01
     c84:	88 23       	and	r24, r24
     c86:	19 f4       	brne	.+6      	; 0xc8e <main+0x4fe>
     c88:	8c 81       	ldd	r24, Y+4	; 0x04
     c8a:	88 23       	and	r24, r24
     c8c:	21 f0       	breq	.+8      	; 0xc96 <main+0x506>
				ucRegCoilsBuf[ 0 ] = 0;
     c8e:	10 92 42 03 	sts	0x0342, r1
				ucRegCoilsBuf[ 1 ] = 0;
     c92:	10 92 43 03 	sts	0x0343, r1
			}

			PORTE &= ~MCU_DO_DIS_bm;
     c96:	1d 98       	cbi	0x03, 5	; 3
     c98:	40 e0       	ldi	r20, 0x00	; 0
     c9a:	50 e0       	ldi	r21, 0x00	; 0
     c9c:	02 c0       	rjmp	.+4      	; 0xca2 <main+0x512>
		} else {
			PORTE |= MCU_DO_DIS_bm;
     c9e:	1d 9a       	sbi	0x03, 5	; 3
     ca0:	fb cf       	rjmp	.-10     	; 0xc98 <main+0x508>
		//=====================================================================

		n = 0;
		for( i = 0; i < 19; i++ ) {
			n = i / 8;
			outPort[ i ] = 0;
     ca2:	da 01       	movw	r26, r20
     ca4:	a7 5a       	subi	r26, 0xA7	; 167
     ca6:	be 4f       	sbci	r27, 0xFE	; 254
     ca8:	1c 92       	st	X, r1
			if( ucRegCoilsBuf[ n ] & ( 1<<(i - 8 * n) ) ) {
     caa:	24 2f       	mov	r18, r20
     cac:	26 95       	lsr	r18
     cae:	26 95       	lsr	r18
     cb0:	26 95       	lsr	r18
     cb2:	30 e0       	ldi	r19, 0x00	; 0
     cb4:	f9 01       	movw	r30, r18
     cb6:	ee 5b       	subi	r30, 0xBE	; 190
     cb8:	fc 4f       	sbci	r31, 0xFC	; 252
     cba:	80 81       	ld	r24, Z
     cbc:	90 e0       	ldi	r25, 0x00	; 0
     cbe:	13 e0       	ldi	r17, 0x03	; 3
     cc0:	22 0f       	add	r18, r18
     cc2:	33 1f       	adc	r19, r19
     cc4:	1a 95       	dec	r17
     cc6:	e1 f7       	brne	.-8      	; 0xcc0 <main+0x530>
     cc8:	ba 01       	movw	r22, r20
     cca:	62 1b       	sub	r22, r18
     ccc:	73 0b       	sbc	r23, r19
     cce:	06 2e       	mov	r0, r22
     cd0:	02 c0       	rjmp	.+4      	; 0xcd6 <main+0x546>
     cd2:	95 95       	asr	r25
     cd4:	87 95       	ror	r24
     cd6:	0a 94       	dec	r0
     cd8:	e2 f7       	brpl	.-8      	; 0xcd2 <main+0x542>
     cda:	80 fd       	sbrc	r24, 0
				outPort[i] = 1;
     cdc:	ac 92       	st	X, r10
     cde:	4f 5f       	subi	r20, 0xFF	; 255
     ce0:	5f 4f       	sbci	r21, 0xFF	; 255
		}

		//=====================================================================

		n = 0;
		for( i = 0; i < 19; i++ ) {
     ce2:	43 31       	cpi	r20, 0x13	; 19
     ce4:	51 05       	cpc	r21, r1
     ce6:	e9 f6       	brne	.-70     	; 0xca2 <main+0x512>
			if( ucRegCoilsBuf[ n ] & ( 1<<(i - 8 * n) ) ) {
				outPort[i] = 1;
			}
		}

		writeDigitalOutput( (uint8_t*)outPort );
     ce8:	89 e5       	ldi	r24, 0x59	; 89
     cea:	91 e0       	ldi	r25, 0x01	; 1
     cec:	0e 94 7e 11 	call	0x22fc	; 0x22fc <writeDigitalOutput>

		//=====================================================================

		isRun = QOIL_REMOTE_RUN;
     cf0:	80 91 69 01 	lds	r24, 0x0169
     cf4:	80 93 38 01 	sts	0x0138, r24

		if(	( !MCU_RUN_SWITCH || QOIL_REMOTE_RESET )// &&
     cf8:	80 91 51 01 	lds	r24, 0x0151
     cfc:	88 23       	and	r24, r24
     cfe:	21 f0       	breq	.+8      	; 0xd08 <main+0x578>
     d00:	80 91 6a 01 	lds	r24, 0x016A
     d04:	88 23       	and	r24, r24
     d06:	31 f0       	breq	.+12     	; 0xd14 <main+0x584>
			//( ( MCU_VCC_FB1 && MCU_DO_DIAG1 ) && ( MCU_VCC_FB0 && MCU_DO_DIAG0 ) )
		) {
			ucTrigTimeOutError = 0;
     d08:	1c 82       	std	Y+4, r1	; 0x04
			ucTrigOut0Error = 0;
     d0a:	1a 82       	std	Y+2, r1	; 0x02
			ucTrigOut1Error = 0;
     d0c:	1b 82       	std	Y+3, r1	; 0x03

			ucFlagTimeOutOutError = 0;
     d0e:	10 92 a7 01 	sts	0x01A7, r1
			ucTrigOutError = 0;
     d12:	19 82       	std	Y+1, r1	; 0x01
		}

		//=====================================================================
		// HMI:
		memcpy( (char*)hmiLed, (char*)inPort, 16 );
     d14:	a9 e7       	ldi	r26, 0x79	; 121
     d16:	b1 e0       	ldi	r27, 0x01	; 1
     d18:	e9 e3       	ldi	r30, 0x39	; 57
     d1a:	f1 e0       	ldi	r31, 0x01	; 1
     d1c:	80 e1       	ldi	r24, 0x10	; 16
     d1e:	01 90       	ld	r0, Z+
     d20:	0d 92       	st	X+, r0
     d22:	81 50       	subi	r24, 0x01	; 1
     d24:	e1 f7       	brne	.-8      	; 0xd1e <main+0x58e>
		memcpy( (char*)&hmiLed[20], (char*)outPort, 16 );
     d26:	ad e8       	ldi	r26, 0x8D	; 141
     d28:	b1 e0       	ldi	r27, 0x01	; 1
     d2a:	e9 e5       	ldi	r30, 0x59	; 89
     d2c:	f1 e0       	ldi	r31, 0x01	; 1
     d2e:	80 e1       	ldi	r24, 0x10	; 16
     d30:	01 90       	ld	r0, Z+
     d32:	0d 92       	st	X+, r0
     d34:	81 50       	subi	r24, 0x01	; 1
     d36:	e1 f7       	brne	.-8      	; 0xd30 <main+0x5a0>

		hmiLed[16] = !isRun || ( isRun && flashTimer );
     d38:	80 91 38 01 	lds	r24, 0x0138
     d3c:	88 23       	and	r24, r24
     d3e:	61 f0       	breq	.+24     	; 0xd58 <main+0x5c8>
     d40:	80 91 38 01 	lds	r24, 0x0138
     d44:	88 23       	and	r24, r24
     d46:	19 f4       	brne	.+6      	; 0xd4e <main+0x5be>
     d48:	80 e0       	ldi	r24, 0x00	; 0
     d4a:	90 e0       	ldi	r25, 0x00	; 0
     d4c:	07 c0       	rjmp	.+14     	; 0xd5c <main+0x5cc>
     d4e:	80 e0       	ldi	r24, 0x00	; 0
     d50:	90 e0       	ldi	r25, 0x00	; 0
     d52:	41 14       	cp	r4, r1
     d54:	51 04       	cpc	r5, r1
     d56:	11 f0       	breq	.+4      	; 0xd5c <main+0x5cc>
     d58:	81 e0       	ldi	r24, 0x01	; 1
     d5a:	90 e0       	ldi	r25, 0x00	; 0
     d5c:	80 93 89 01 	sts	0x0189, r24
		hmiLed[18] = ucTrigTimeOutError;
     d60:	8c 81       	ldd	r24, Y+4	; 0x04
     d62:	80 93 8b 01 	sts	0x018B, r24
		hmiLed[19] = ( PORTE & MCU_RS485_DE_bm ) ? 1 : 0;
     d66:	83 b1       	in	r24, 0x03	; 3
     d68:	90 e0       	ldi	r25, 0x00	; 0
     d6a:	96 95       	lsr	r25
     d6c:	87 95       	ror	r24
     d6e:	96 95       	lsr	r25
     d70:	87 95       	ror	r24
     d72:	81 70       	andi	r24, 0x01	; 1
     d74:	80 93 8c 01 	sts	0x018C, r24
		hmiLed[36] = MCU_VCC_FB0;
     d78:	80 91 4d 01 	lds	r24, 0x014D
     d7c:	80 93 9d 01 	sts	0x019D, r24
		hmiLed[37] = MCU_VCC_FB1;
     d80:	80 91 4e 01 	lds	r24, 0x014E
     d84:	80 93 9e 01 	sts	0x019E, r24
		hmiLed[38] = ucTrigOut0Error;
     d88:	8a 81       	ldd	r24, Y+2	; 0x02
     d8a:	80 93 9f 01 	sts	0x019F, r24
		hmiLed[39] = ucTrigOut1Error;
     d8e:	8b 81       	ldd	r24, Y+3	; 0x03
     d90:	80 93 a0 01 	sts	0x01A0, r24

		writeHmiLed( (uint8_t*)hmiLed );
     d94:	89 e7       	ldi	r24, 0x79	; 121
     d96:	91 e0       	ldi	r25, 0x01	; 1
     d98:	0e 94 e2 11 	call	0x23c4	; 0x23c4 <writeHmiLed>
     d9c:	0c 2d       	mov	r16, r12
     d9e:	10 e0       	ldi	r17, 0x00	; 0
     da0:	6c ce       	rjmp	.-808    	; 0xa7a <main+0x2ea>

00000da2 <xMBRTUTimerT35Expired>:
    return xNeedPoll;
}

BOOL
xMBRTUTimerT35Expired( void )
{
     da2:	1f 93       	push	r17
    BOOL            xNeedPoll = FALSE;

    switch ( eRcvState )
     da4:	80 91 5c 03 	lds	r24, 0x035C
     da8:	88 23       	and	r24, r24
     daa:	21 f0       	breq	.+8      	; 0xdb4 <xMBRTUTimerT35Expired+0x12>
     dac:	82 30       	cpi	r24, 0x02	; 2
     dae:	21 f0       	breq	.+8      	; 0xdb8 <xMBRTUTimerT35Expired+0x16>
     db0:	10 e0       	ldi	r17, 0x00	; 0
     db2:	06 c0       	rjmp	.+12     	; 0xdc0 <xMBRTUTimerT35Expired+0x1e>
    {
        /* Timer t35 expired. Startup phase is finished. */
    case STATE_RX_INIT:
        xNeedPoll = xMBPortEventPost( EV_READY );
     db4:	80 e0       	ldi	r24, 0x00	; 0
     db6:	01 c0       	rjmp	.+2      	; 0xdba <xMBRTUTimerT35Expired+0x18>
        break;

        /* A frame was received and t35 expired. Notify the listener that
         * a new frame was received. */
    case STATE_RX_RCV:
        xNeedPoll = xMBPortEventPost( EV_FRAME_RECEIVED );
     db8:	81 e0       	ldi	r24, 0x01	; 1
     dba:	0e 94 a3 0d 	call	0x1b46	; 0x1b46 <xMBPortEventPost>
     dbe:	18 2f       	mov	r17, r24
    default:
        assert( ( eRcvState == STATE_RX_INIT ) ||
                ( eRcvState == STATE_RX_RCV ) || ( eRcvState == STATE_RX_ERROR ) );
    }

    vMBPortTimersDisable(  );
     dc0:	0e 94 3e 0f 	call	0x1e7c	; 0x1e7c <vMBPortTimersDisable>
    eRcvState = STATE_RX_IDLE;
     dc4:	81 e0       	ldi	r24, 0x01	; 1
     dc6:	80 93 5c 03 	sts	0x035C, r24

    return xNeedPoll;
}
     dca:	81 2f       	mov	r24, r17
     dcc:	1f 91       	pop	r17
     dce:	08 95       	ret

00000dd0 <eMBRTUStop>:
}

void
eMBRTUStop( void )
{
    ENTER_CRITICAL_SECTION(  );
     dd0:	f8 94       	cli
    vMBPortSerialEnable( FALSE, FALSE );
     dd2:	80 e0       	ldi	r24, 0x00	; 0
     dd4:	60 e0       	ldi	r22, 0x00	; 0
     dd6:	0e 94 b6 0d 	call	0x1b6c	; 0x1b6c <vMBPortSerialEnable>
    vMBPortTimersDisable(  );
     dda:	0e 94 3e 0f 	call	0x1e7c	; 0x1e7c <vMBPortTimersDisable>
    EXIT_CRITICAL_SECTION(  );
     dde:	78 94       	sei
}
     de0:	08 95       	ret

00000de2 <xMBRTUTransmitFSM>:
    return xTaskNeedSwitch;
}

BOOL
xMBRTUTransmitFSM( void )
{
     de2:	1f 93       	push	r17
    BOOL            xNeedPoll = FALSE;

    assert( eRcvState == STATE_RX_IDLE );

    switch ( eSndState )
     de4:	80 91 5b 03 	lds	r24, 0x035B
     de8:	88 23       	and	r24, r24
     dea:	19 f0       	breq	.+6      	; 0xdf2 <xMBRTUTransmitFSM+0x10>
     dec:	81 30       	cpi	r24, 0x01	; 1
     dee:	29 f4       	brne	.+10     	; 0xdfa <xMBRTUTransmitFSM+0x18>
     df0:	06 c0       	rjmp	.+12     	; 0xdfe <xMBRTUTransmitFSM+0x1c>
    {
        /* We should not get a transmitter event if the transmitter is in
         * idle state.  */
    case STATE_TX_IDLE:
        /* enable receiver/disable transmitter. */
        vMBPortSerialEnable( TRUE, FALSE );
     df2:	81 e0       	ldi	r24, 0x01	; 1
     df4:	60 e0       	ldi	r22, 0x00	; 0
     df6:	0e 94 b6 0d 	call	0x1b6c	; 0x1b6c <vMBPortSerialEnable>
     dfa:	10 e0       	ldi	r17, 0x00	; 0
     dfc:	2a c0       	rjmp	.+84     	; 0xe52 <xMBRTUTransmitFSM+0x70>
        break;

    case STATE_TX_XMIT:
        /* check if we are finished. */
        if( usSndBufferCount != 0 )
     dfe:	80 91 5f 03 	lds	r24, 0x035F
     e02:	90 91 60 03 	lds	r25, 0x0360
     e06:	89 2b       	or	r24, r25
     e08:	d1 f0       	breq	.+52     	; 0xe3e <xMBRTUTransmitFSM+0x5c>
        {
            xMBPortSerialPutByte( ( CHAR )*pucSndBufferCur );
     e0a:	e0 91 5d 03 	lds	r30, 0x035D
     e0e:	f0 91 5e 03 	lds	r31, 0x035E
     e12:	80 81       	ld	r24, Z
     e14:	0e 94 c2 0e 	call	0x1d84	; 0x1d84 <xMBPortSerialPutByte>
            pucSndBufferCur++;  /* next byte in sendbuffer. */
     e18:	80 91 5d 03 	lds	r24, 0x035D
     e1c:	90 91 5e 03 	lds	r25, 0x035E
     e20:	01 96       	adiw	r24, 0x01	; 1
     e22:	90 93 5e 03 	sts	0x035E, r25
     e26:	80 93 5d 03 	sts	0x035D, r24
            usSndBufferCount--;
     e2a:	80 91 5f 03 	lds	r24, 0x035F
     e2e:	90 91 60 03 	lds	r25, 0x0360
     e32:	01 97       	sbiw	r24, 0x01	; 1
     e34:	90 93 60 03 	sts	0x0360, r25
     e38:	80 93 5f 03 	sts	0x035F, r24
     e3c:	de cf       	rjmp	.-68     	; 0xdfa <xMBRTUTransmitFSM+0x18>
        }
        else
        {
            xNeedPoll = xMBPortEventPost( EV_FRAME_SENT );
     e3e:	83 e0       	ldi	r24, 0x03	; 3
     e40:	0e 94 a3 0d 	call	0x1b46	; 0x1b46 <xMBPortEventPost>
     e44:	18 2f       	mov	r17, r24
            /* Disable transmitter. This prevents another transmit buffer
             * empty interrupt. */
            vMBPortSerialEnable( TRUE, FALSE );
     e46:	81 e0       	ldi	r24, 0x01	; 1
     e48:	60 e0       	ldi	r22, 0x00	; 0
     e4a:	0e 94 b6 0d 	call	0x1b6c	; 0x1b6c <vMBPortSerialEnable>
            eSndState = STATE_TX_IDLE;
     e4e:	10 92 5b 03 	sts	0x035B, r1
        }
        break;
    }

    return xNeedPoll;
}
     e52:	81 2f       	mov	r24, r17
     e54:	1f 91       	pop	r17
     e56:	08 95       	ret

00000e58 <xMBRTUReceiveFSM>:
    return eStatus;
}

BOOL
xMBRTUReceiveFSM( void )
{
     e58:	df 93       	push	r29
     e5a:	cf 93       	push	r28
     e5c:	0f 92       	push	r0
     e5e:	cd b7       	in	r28, 0x3d	; 61
     e60:	de b7       	in	r29, 0x3e	; 62
    UCHAR           ucByte;

    assert( eSndState == STATE_TX_IDLE );

    /* Always read the character. */
    ( void )xMBPortSerialGetByte( ( CHAR * ) & ucByte );
     e62:	ce 01       	movw	r24, r28
     e64:	01 96       	adiw	r24, 0x01	; 1
     e66:	0e 94 c6 0e 	call	0x1d8c	; 0x1d8c <xMBPortSerialGetByte>

    switch ( eRcvState )
     e6a:	80 91 5c 03 	lds	r24, 0x035C
     e6e:	81 30       	cpi	r24, 0x01	; 1
     e70:	39 f0       	breq	.+14     	; 0xe80 <xMBRTUReceiveFSM+0x28>
     e72:	81 30       	cpi	r24, 0x01	; 1
     e74:	98 f1       	brcs	.+102    	; 0xedc <xMBRTUReceiveFSM+0x84>
     e76:	82 30       	cpi	r24, 0x02	; 2
     e78:	b9 f0       	breq	.+46     	; 0xea8 <xMBRTUReceiveFSM+0x50>
     e7a:	83 30       	cpi	r24, 0x03	; 3
     e7c:	89 f5       	brne	.+98     	; 0xee0 <xMBRTUReceiveFSM+0x88>
     e7e:	2e c0       	rjmp	.+92     	; 0xedc <xMBRTUReceiveFSM+0x84>
        /* In the idle state we wait for a new character. If a character
         * is received the t1.5 and t3.5 timers are started and the
         * receiver is in the state STATE_RX_RECEIVCE.
         */
    case STATE_RX_IDLE:
        usRcvBufferPos = 0;
     e80:	10 92 62 03 	sts	0x0362, r1
     e84:	10 92 61 03 	sts	0x0361, r1
        ucRTUBuf[usRcvBufferPos++] = ucByte;
     e88:	80 91 61 03 	lds	r24, 0x0361
     e8c:	90 91 62 03 	lds	r25, 0x0362
     e90:	29 81       	ldd	r18, Y+1	; 0x01
     e92:	fc 01       	movw	r30, r24
     e94:	e5 5f       	subi	r30, 0xF5	; 245
     e96:	f9 4f       	sbci	r31, 0xF9	; 249
     e98:	20 83       	st	Z, r18
     e9a:	01 96       	adiw	r24, 0x01	; 1
     e9c:	90 93 62 03 	sts	0x0362, r25
     ea0:	80 93 61 03 	sts	0x0361, r24
        eRcvState = STATE_RX_RCV;
     ea4:	82 e0       	ldi	r24, 0x02	; 2
     ea6:	18 c0       	rjmp	.+48     	; 0xed8 <xMBRTUReceiveFSM+0x80>
         * every character received. If more than the maximum possible
         * number of bytes in a modbus frame is received the frame is
         * ignored.
         */
    case STATE_RX_RCV:
        if( usRcvBufferPos < MB_SER_PDU_SIZE_MAX )
     ea8:	80 91 61 03 	lds	r24, 0x0361
     eac:	90 91 62 03 	lds	r25, 0x0362
     eb0:	8f 3f       	cpi	r24, 0xFF	; 255
     eb2:	91 05       	cpc	r25, r1
     eb4:	09 f0       	breq	.+2      	; 0xeb8 <xMBRTUReceiveFSM+0x60>
     eb6:	78 f4       	brcc	.+30     	; 0xed6 <xMBRTUReceiveFSM+0x7e>
        {
            ucRTUBuf[usRcvBufferPos++] = ucByte;
     eb8:	80 91 61 03 	lds	r24, 0x0361
     ebc:	90 91 62 03 	lds	r25, 0x0362
     ec0:	29 81       	ldd	r18, Y+1	; 0x01
     ec2:	fc 01       	movw	r30, r24
     ec4:	e5 5f       	subi	r30, 0xF5	; 245
     ec6:	f9 4f       	sbci	r31, 0xF9	; 249
     ec8:	20 83       	st	Z, r18
     eca:	01 96       	adiw	r24, 0x01	; 1
     ecc:	90 93 62 03 	sts	0x0362, r25
     ed0:	80 93 61 03 	sts	0x0361, r24
     ed4:	03 c0       	rjmp	.+6      	; 0xedc <xMBRTUReceiveFSM+0x84>
        }
        else
        {
            eRcvState = STATE_RX_ERROR;
     ed6:	83 e0       	ldi	r24, 0x03	; 3
     ed8:	80 93 5c 03 	sts	0x035C, r24
        }
        vMBPortTimersEnable(  );
     edc:	0e 94 2c 0f 	call	0x1e58	; 0x1e58 <vMBPortTimersEnable>
        break;
    }
    return xTaskNeedSwitch;
}
     ee0:	80 e0       	ldi	r24, 0x00	; 0
     ee2:	0f 90       	pop	r0
     ee4:	cf 91       	pop	r28
     ee6:	df 91       	pop	r29
     ee8:	08 95       	ret

00000eea <eMBRTUStart>:
}

void
eMBRTUStart( void )
{
    ENTER_CRITICAL_SECTION(  );
     eea:	f8 94       	cli
    /* Initially the receiver is in the state STATE_RX_INIT. we start
     * the timer and if no character is received within t3.5 we change
     * to STATE_RX_IDLE. This makes sure that we delay startup of the
     * modbus protocol stack until the bus is free.
     */
    eRcvState = STATE_RX_INIT;
     eec:	10 92 5c 03 	sts	0x035C, r1
    vMBPortSerialEnable( TRUE, FALSE );
     ef0:	81 e0       	ldi	r24, 0x01	; 1
     ef2:	60 e0       	ldi	r22, 0x00	; 0
     ef4:	0e 94 b6 0d 	call	0x1b6c	; 0x1b6c <vMBPortSerialEnable>
    vMBPortTimersEnable(  );
     ef8:	0e 94 2c 0f 	call	0x1e58	; 0x1e58 <vMBPortTimersEnable>

    EXIT_CRITICAL_SECTION(  );
     efc:	78 94       	sei
}
     efe:	08 95       	ret

00000f00 <eMBRTUSend>:
    return eStatus;
}

eMBErrorCode
eMBRTUSend( UCHAR ucSlaveAddress, const UCHAR * pucFrame, USHORT usLength )
{
     f00:	1f 93       	push	r17
     f02:	28 2f       	mov	r18, r24
    eMBErrorCode    eStatus = MB_ENOERR;
    USHORT          usCRC16;

    ENTER_CRITICAL_SECTION(  );
     f04:	f8 94       	cli

    /* Check if the receiver is still in idle state. If not we where to
     * slow with processing the received frame and the master sent another
     * frame on the network. We have to abort sending the frame.
     */
    if( eRcvState == STATE_RX_IDLE )
     f06:	10 91 5c 03 	lds	r17, 0x035C
     f0a:	11 30       	cpi	r17, 0x01	; 1
     f0c:	11 f0       	breq	.+4      	; 0xf12 <eMBRTUSend+0x12>
     f0e:	85 e0       	ldi	r24, 0x05	; 5
     f10:	41 c0       	rjmp	.+130    	; 0xf94 <eMBRTUSend+0x94>
    {
        /* First byte before the Modbus-PDU is the slave address. */
        pucSndBufferCur = ( UCHAR * ) pucFrame - 1;
     f12:	fb 01       	movw	r30, r22
     f14:	31 97       	sbiw	r30, 0x01	; 1
     f16:	f0 93 5e 03 	sts	0x035E, r31
     f1a:	e0 93 5d 03 	sts	0x035D, r30
        usSndBufferCount = 1;
     f1e:	81 e0       	ldi	r24, 0x01	; 1
     f20:	90 e0       	ldi	r25, 0x00	; 0
     f22:	90 93 60 03 	sts	0x0360, r25
     f26:	80 93 5f 03 	sts	0x035F, r24

        /* Now copy the Modbus-PDU into the Modbus-Serial-Line-PDU. */
        pucSndBufferCur[MB_SER_PDU_ADDR_OFF] = ucSlaveAddress;
     f2a:	20 83       	st	Z, r18
        usSndBufferCount += usLength;
     f2c:	80 91 5f 03 	lds	r24, 0x035F
     f30:	90 91 60 03 	lds	r25, 0x0360
     f34:	84 0f       	add	r24, r20
     f36:	95 1f       	adc	r25, r21
     f38:	90 93 60 03 	sts	0x0360, r25
     f3c:	80 93 5f 03 	sts	0x035F, r24

        /* Calculate CRC16 checksum for Modbus-Serial-Line-PDU. */
        usCRC16 = usMBCRC16( ( UCHAR * ) pucSndBufferCur, usSndBufferCount );
     f40:	60 91 5f 03 	lds	r22, 0x035F
     f44:	70 91 60 03 	lds	r23, 0x0360
     f48:	cf 01       	movw	r24, r30
     f4a:	0e 94 80 0d 	call	0x1b00	; 0x1b00 <usMBCRC16>
        ucRTUBuf[usSndBufferCount++] = ( UCHAR )( usCRC16 & 0xFF );
     f4e:	20 91 5f 03 	lds	r18, 0x035F
     f52:	30 91 60 03 	lds	r19, 0x0360
     f56:	f9 01       	movw	r30, r18
     f58:	e5 5f       	subi	r30, 0xF5	; 245
     f5a:	f9 4f       	sbci	r31, 0xF9	; 249
     f5c:	80 83       	st	Z, r24
     f5e:	2f 5f       	subi	r18, 0xFF	; 255
     f60:	3f 4f       	sbci	r19, 0xFF	; 255
     f62:	30 93 60 03 	sts	0x0360, r19
     f66:	20 93 5f 03 	sts	0x035F, r18
        ucRTUBuf[usSndBufferCount++] = ( UCHAR )( usCRC16 >> 8 );
     f6a:	20 91 5f 03 	lds	r18, 0x035F
     f6e:	30 91 60 03 	lds	r19, 0x0360
     f72:	f9 01       	movw	r30, r18
     f74:	e5 5f       	subi	r30, 0xF5	; 245
     f76:	f9 4f       	sbci	r31, 0xF9	; 249
     f78:	90 83       	st	Z, r25
     f7a:	2f 5f       	subi	r18, 0xFF	; 255
     f7c:	3f 4f       	sbci	r19, 0xFF	; 255
     f7e:	30 93 60 03 	sts	0x0360, r19
     f82:	20 93 5f 03 	sts	0x035F, r18

        /* Activate the transmitter. */
        eSndState = STATE_TX_XMIT;
     f86:	10 93 5b 03 	sts	0x035B, r17
        vMBPortSerialEnable( FALSE, TRUE );
     f8a:	80 e0       	ldi	r24, 0x00	; 0
     f8c:	61 e0       	ldi	r22, 0x01	; 1
     f8e:	0e 94 b6 0d 	call	0x1b6c	; 0x1b6c <vMBPortSerialEnable>
     f92:	80 e0       	ldi	r24, 0x00	; 0
    }
    else
    {
        eStatus = MB_EIO;
    }
    EXIT_CRITICAL_SECTION(  );
     f94:	78 94       	sei
    return eStatus;
}
     f96:	1f 91       	pop	r17
     f98:	08 95       	ret

00000f9a <eMBRTUReceive>:
    EXIT_CRITICAL_SECTION(  );
}

eMBErrorCode
eMBRTUReceive( UCHAR * pucRcvAddress, UCHAR ** pucFrame, USHORT * pusLength )
{
     f9a:	ef 92       	push	r14
     f9c:	ff 92       	push	r15
     f9e:	0f 93       	push	r16
     fa0:	1f 93       	push	r17
     fa2:	cf 93       	push	r28
     fa4:	df 93       	push	r29
     fa6:	ec 01       	movw	r28, r24
     fa8:	7b 01       	movw	r14, r22
     faa:	8a 01       	movw	r16, r20
    BOOL            xFrameReceived = FALSE;
    eMBErrorCode    eStatus = MB_ENOERR;

    ENTER_CRITICAL_SECTION(  );
     fac:	f8 94       	cli
    assert( usRcvBufferPos < MB_SER_PDU_SIZE_MAX );

    /* Length and CRC check */
    if( ( usRcvBufferPos >= MB_SER_PDU_SIZE_MIN )
     fae:	80 91 61 03 	lds	r24, 0x0361
     fb2:	90 91 62 03 	lds	r25, 0x0362
     fb6:	04 97       	sbiw	r24, 0x04	; 4
     fb8:	e0 f0       	brcs	.+56     	; 0xff2 <eMBRTUReceive+0x58>
     fba:	60 91 61 03 	lds	r22, 0x0361
     fbe:	70 91 62 03 	lds	r23, 0x0362
     fc2:	8b e0       	ldi	r24, 0x0B	; 11
     fc4:	96 e0       	ldi	r25, 0x06	; 6
     fc6:	0e 94 80 0d 	call	0x1b00	; 0x1b00 <usMBCRC16>
     fca:	89 2b       	or	r24, r25
     fcc:	91 f4       	brne	.+36     	; 0xff2 <eMBRTUReceive+0x58>
        && ( usMBCRC16( ( UCHAR * ) ucRTUBuf, usRcvBufferPos ) == 0 ) )
    {
        /* Save the address field. All frames are passed to the upper layed
         * and the decision if a frame is used is done there.
         */
        *pucRcvAddress = ucRTUBuf[MB_SER_PDU_ADDR_OFF];
     fce:	80 91 0b 06 	lds	r24, 0x060B
     fd2:	88 83       	st	Y, r24

        /* Total length of Modbus-PDU is Modbus-Serial-Line-PDU minus
         * size of address field and CRC checksum.
         */
        *pusLength = ( USHORT )( usRcvBufferPos - MB_SER_PDU_PDU_OFF - MB_SER_PDU_SIZE_CRC );
     fd4:	80 91 61 03 	lds	r24, 0x0361
     fd8:	90 91 62 03 	lds	r25, 0x0362
     fdc:	03 97       	sbiw	r24, 0x03	; 3
     fde:	f8 01       	movw	r30, r16
     fe0:	91 83       	std	Z+1, r25	; 0x01
     fe2:	80 83       	st	Z, r24

        /* Return the start of the Modbus PDU to the caller. */
        *pucFrame = ( UCHAR * ) & ucRTUBuf[MB_SER_PDU_PDU_OFF];
     fe4:	8c e0       	ldi	r24, 0x0C	; 12
     fe6:	96 e0       	ldi	r25, 0x06	; 6
     fe8:	f7 01       	movw	r30, r14
     fea:	91 83       	std	Z+1, r25	; 0x01
     fec:	80 83       	st	Z, r24
     fee:	80 e0       	ldi	r24, 0x00	; 0
     ff0:	01 c0       	rjmp	.+2      	; 0xff4 <eMBRTUReceive+0x5a>

    ENTER_CRITICAL_SECTION(  );
    assert( usRcvBufferPos < MB_SER_PDU_SIZE_MAX );

    /* Length and CRC check */
    if( ( usRcvBufferPos >= MB_SER_PDU_SIZE_MIN )
     ff2:	85 e0       	ldi	r24, 0x05	; 5
    else
    {
        eStatus = MB_EIO;
    }

    EXIT_CRITICAL_SECTION(  );
     ff4:	78 94       	sei
    return eStatus;
}
     ff6:	df 91       	pop	r29
     ff8:	cf 91       	pop	r28
     ffa:	1f 91       	pop	r17
     ffc:	0f 91       	pop	r16
     ffe:	ff 90       	pop	r15
    1000:	ef 90       	pop	r14
    1002:	08 95       	ret

00001004 <eMBRTUInit>:
static volatile USHORT usRcvBufferPos;

/* ----------------------- Start implementation -----------------------------*/
eMBErrorCode
eMBRTUInit( UCHAR ucSlaveAddress, UCHAR ucPort, ULONG ulBaudRate, eMBParity eParity )
{
    1004:	cf 92       	push	r12
    1006:	df 92       	push	r13
    1008:	ef 92       	push	r14
    100a:	ff 92       	push	r15
    100c:	0f 93       	push	r16
    100e:	86 2f       	mov	r24, r22
    1010:	69 01       	movw	r12, r18
    1012:	7a 01       	movw	r14, r20
    eMBErrorCode    eStatus = MB_ENOERR;
    ULONG           usTimerT35_50us;

    ( void )ucSlaveAddress;
    ENTER_CRITICAL_SECTION(  );
    1014:	f8 94       	cli

    /* Modbus RTU uses 8 Databits. */
    if( xMBPortSerialInit( ucPort, ulBaudRate, 8, eParity ) != TRUE )
    1016:	ba 01       	movw	r22, r20
    1018:	a9 01       	movw	r20, r18
    101a:	28 e0       	ldi	r18, 0x08	; 8
    101c:	0e 94 c7 0d 	call	0x1b8e	; 0x1b8e <xMBPortSerialInit>
    1020:	81 30       	cpi	r24, 0x01	; 1
    1022:	09 f5       	brne	.+66     	; 0x1066 <eMBRTUInit+0x62>
    else
    {
        /* If baudrate > 19200 then we should use the fixed timer values
         * t35 = 1750us. Otherwise t35 must be 3.5 times the character time.
         */
        if( ulBaudRate > 19200 )
    1024:	81 e0       	ldi	r24, 0x01	; 1
    1026:	c8 16       	cp	r12, r24
    1028:	8b e4       	ldi	r24, 0x4B	; 75
    102a:	d8 06       	cpc	r13, r24
    102c:	80 e0       	ldi	r24, 0x00	; 0
    102e:	e8 06       	cpc	r14, r24
    1030:	80 e0       	ldi	r24, 0x00	; 0
    1032:	f8 06       	cpc	r15, r24
    1034:	28 f0       	brcs	.+10     	; 0x1040 <eMBRTUInit+0x3c>
    1036:	83 e2       	ldi	r24, 0x23	; 35
    1038:	90 e0       	ldi	r25, 0x00	; 0
    103a:	a0 e0       	ldi	r26, 0x00	; 0
    103c:	b0 e0       	ldi	r27, 0x00	; 0
    103e:	0d c0       	rjmp	.+26     	; 0x105a <eMBRTUInit+0x56>
             *             = 11 * Ticks_per_1s / Baudrate
             *             = 220000 / Baudrate
             * The reload for t3.5 is 1.5 times this value and similary
             * for t3.5.
             */
            usTimerT35_50us = ( 7UL * 220000UL ) / ( 2UL * ulBaudRate );
    1040:	cc 0c       	add	r12, r12
    1042:	dd 1c       	adc	r13, r13
    1044:	ee 1c       	adc	r14, r14
    1046:	ff 1c       	adc	r15, r15
    1048:	60 ea       	ldi	r22, 0xA0	; 160
    104a:	7f e7       	ldi	r23, 0x7F	; 127
    104c:	87 e1       	ldi	r24, 0x17	; 23
    104e:	90 e0       	ldi	r25, 0x00	; 0
    1050:	a7 01       	movw	r20, r14
    1052:	96 01       	movw	r18, r12
    1054:	0e 94 7c 18 	call	0x30f8	; 0x30f8 <__udivmodsi4>
    1058:	c9 01       	movw	r24, r18
        }
        if( xMBPortTimersInit( ( USHORT ) usTimerT35_50us ) != TRUE )
    105a:	0e 94 48 0f 	call	0x1e90	; 0x1e90 <xMBPortTimersInit>
    105e:	81 30       	cpi	r24, 0x01	; 1
    1060:	11 f4       	brne	.+4      	; 0x1066 <eMBRTUInit+0x62>
    1062:	80 e0       	ldi	r24, 0x00	; 0
    1064:	01 c0       	rjmp	.+2      	; 0x1068 <eMBRTUInit+0x64>
    1066:	83 e0       	ldi	r24, 0x03	; 3
        {
            eStatus = MB_EPORTERR;
        }
    }
    EXIT_CRITICAL_SECTION(  );
    1068:	78 94       	sei

    return eStatus;
}
    106a:	0f 91       	pop	r16
    106c:	ff 90       	pop	r15
    106e:	ef 90       	pop	r14
    1070:	df 90       	pop	r13
    1072:	cf 90       	pop	r12
    1074:	08 95       	ret

00001076 <eMBASCIIReceive>:
    EXIT_CRITICAL_SECTION(  );
}

eMBErrorCode
eMBASCIIReceive( UCHAR * pucRcvAddress, UCHAR ** pucFrame, USHORT * pusLength )
{
    1076:	cf 93       	push	r28
    1078:	df 93       	push	r29
    107a:	dc 01       	movw	r26, r24
    107c:	ea 01       	movw	r28, r20
    eMBErrorCode    eStatus = MB_ENOERR;

    ENTER_CRITICAL_SECTION(  );
    107e:	f8 94       	cli
    assert( usRcvBufferPos < MB_SER_PDU_SIZE_MAX );

    /* Length and CRC check */
    if( ( usRcvBufferPos >= MB_SER_PDU_SIZE_MIN )
    1080:	80 91 65 03 	lds	r24, 0x0365
    1084:	90 91 66 03 	lds	r25, 0x0366
    1088:	03 97       	sbiw	r24, 0x03	; 3
    108a:	38 f1       	brcs	.+78     	; 0x10da <eMBASCIIReceive+0x64>
    108c:	40 91 65 03 	lds	r20, 0x0365
    1090:	50 91 66 03 	lds	r21, 0x0366
    1094:	90 e0       	ldi	r25, 0x00	; 0
    1096:	20 e0       	ldi	r18, 0x00	; 0
    1098:	30 e0       	ldi	r19, 0x00	; 0
    109a:	07 c0       	rjmp	.+14     	; 0x10aa <eMBASCIIReceive+0x34>
{
    UCHAR           ucLRC = 0;  /* LRC char initialized */

    while( usLen-- )
    {
        ucLRC += *pucFrame++;   /* Add buffer byte without carry */
    109c:	f9 01       	movw	r30, r18
    109e:	e6 5f       	subi	r30, 0xF6	; 246
    10a0:	f9 4f       	sbci	r31, 0xF9	; 249
    10a2:	80 81       	ld	r24, Z
    10a4:	98 0f       	add	r25, r24
    10a6:	41 50       	subi	r20, 0x01	; 1
    10a8:	50 40       	sbci	r21, 0x00	; 0
    10aa:	2f 5f       	subi	r18, 0xFF	; 255
    10ac:	3f 4f       	sbci	r19, 0xFF	; 255
static          UCHAR
prvucMBLRC( UCHAR * pucFrame, USHORT usLen )
{
    UCHAR           ucLRC = 0;  /* LRC char initialized */

    while( usLen-- )
    10ae:	41 15       	cp	r20, r1
    10b0:	51 05       	cpc	r21, r1
    10b2:	a1 f7       	brne	.-24     	; 0x109c <eMBASCIIReceive+0x26>

    ENTER_CRITICAL_SECTION(  );
    assert( usRcvBufferPos < MB_SER_PDU_SIZE_MAX );

    /* Length and CRC check */
    if( ( usRcvBufferPos >= MB_SER_PDU_SIZE_MIN )
    10b4:	99 23       	and	r25, r25
    10b6:	89 f4       	brne	.+34     	; 0x10da <eMBASCIIReceive+0x64>
        && ( prvucMBLRC( ( UCHAR * ) ucASCIIBuf, usRcvBufferPos ) == 0 ) )
    {
        /* Save the address field. All frames are passed to the upper layed
         * and the decision if a frame is used is done there.
         */
        *pucRcvAddress = ucASCIIBuf[MB_SER_PDU_ADDR_OFF];
    10b8:	80 91 0b 06 	lds	r24, 0x060B
    10bc:	8c 93       	st	X, r24

        /* Total length of Modbus-PDU is Modbus-Serial-Line-PDU minus
         * size of address field and CRC checksum.
         */
        *pusLength = ( USHORT )( usRcvBufferPos - MB_SER_PDU_PDU_OFF - MB_SER_PDU_SIZE_LRC );
    10be:	80 91 65 03 	lds	r24, 0x0365
    10c2:	90 91 66 03 	lds	r25, 0x0366
    10c6:	02 97       	sbiw	r24, 0x02	; 2
    10c8:	99 83       	std	Y+1, r25	; 0x01
    10ca:	88 83       	st	Y, r24

        /* Return the start of the Modbus PDU to the caller. */
        *pucFrame = ( UCHAR * ) & ucASCIIBuf[MB_SER_PDU_PDU_OFF];
    10cc:	8c e0       	ldi	r24, 0x0C	; 12
    10ce:	96 e0       	ldi	r25, 0x06	; 6
    10d0:	fb 01       	movw	r30, r22
    10d2:	91 83       	std	Z+1, r25	; 0x01
    10d4:	80 83       	st	Z, r24
    10d6:	80 e0       	ldi	r24, 0x00	; 0
    10d8:	01 c0       	rjmp	.+2      	; 0x10dc <eMBASCIIReceive+0x66>

    ENTER_CRITICAL_SECTION(  );
    assert( usRcvBufferPos < MB_SER_PDU_SIZE_MAX );

    /* Length and CRC check */
    if( ( usRcvBufferPos >= MB_SER_PDU_SIZE_MIN )
    10da:	85 e0       	ldi	r24, 0x05	; 5
    }
    else
    {
        eStatus = MB_EIO;
    }
    EXIT_CRITICAL_SECTION(  );
    10dc:	78 94       	sei
    return eStatus;
}
    10de:	df 91       	pop	r29
    10e0:	cf 91       	pop	r28
    10e2:	08 95       	ret

000010e4 <xMBASCIITimerT1SExpired>:
}

BOOL
xMBASCIITimerT1SExpired( void )
{
    switch ( eRcvState )
    10e4:	80 91 64 03 	lds	r24, 0x0364
    10e8:	81 50       	subi	r24, 0x01	; 1
    10ea:	82 30       	cpi	r24, 0x02	; 2
    10ec:	10 f4       	brcc	.+4      	; 0x10f2 <xMBASCIITimerT1SExpired+0xe>
        /* If we have a timeout we go back to the idle state and wait for
         * the next frame.
         */
    case STATE_RX_RCV:
    case STATE_RX_WAIT_EOF:
        eRcvState = STATE_RX_IDLE;
    10ee:	10 92 64 03 	sts	0x0364, r1

    default:
        assert( ( eRcvState == STATE_RX_RCV ) || ( eRcvState == STATE_RX_WAIT_EOF ) );
        break;
    }
    vMBPortTimersDisable(  );
    10f2:	0e 94 3e 0f 	call	0x1e7c	; 0x1e7c <vMBPortTimersDisable>

    /* no context switch required. */
    return FALSE;
}
    10f6:	80 e0       	ldi	r24, 0x00	; 0
    10f8:	08 95       	ret

000010fa <xMBASCIITransmitFSM>:
    return xNeedPoll;
}

BOOL
xMBASCIITransmitFSM( void )
{
    10fa:	1f 93       	push	r17
    BOOL            xNeedPoll = FALSE;
    UCHAR           ucByte;

    assert( eRcvState == STATE_RX_IDLE );
    switch ( eSndState )
    10fc:	80 91 63 03 	lds	r24, 0x0363
    1100:	82 30       	cpi	r24, 0x02	; 2
    1102:	c9 f0       	breq	.+50     	; 0x1136 <__stack+0x37>
    1104:	83 30       	cpi	r24, 0x03	; 3
    1106:	38 f4       	brcc	.+14     	; 0x1116 <__stack+0x17>
    1108:	88 23       	and	r24, r24
    110a:	09 f4       	brne	.+2      	; 0x110e <__stack+0xf>
    110c:	81 c0       	rjmp	.+258    	; 0x1210 <__stack+0x111>
    110e:	81 30       	cpi	r24, 0x01	; 1
    1110:	09 f0       	breq	.+2      	; 0x1114 <__stack+0x15>
    1112:	82 c0       	rjmp	.+260    	; 0x1218 <__stack+0x119>
    1114:	07 c0       	rjmp	.+14     	; 0x1124 <__stack+0x25>
    1116:	83 30       	cpi	r24, 0x03	; 3
    1118:	09 f4       	brne	.+2      	; 0x111c <__stack+0x1d>
    111a:	65 c0       	rjmp	.+202    	; 0x11e6 <__stack+0xe7>
    111c:	84 30       	cpi	r24, 0x04	; 4
    111e:	09 f0       	breq	.+2      	; 0x1122 <__stack+0x23>
    1120:	7b c0       	rjmp	.+246    	; 0x1218 <__stack+0x119>
    1122:	69 c0       	rjmp	.+210    	; 0x11f6 <__stack+0xf7>
    {
        /* Start of transmission. The start of a frame is defined by sending
         * the character ':'. */
    case STATE_TX_START:
        ucByte = ':';
        xMBPortSerialPutByte( ( CHAR )ucByte );
    1124:	8a e3       	ldi	r24, 0x3A	; 58
    1126:	0e 94 c2 0e 	call	0x1d84	; 0x1d84 <xMBPortSerialPutByte>
        eSndState = STATE_TX_DATA;
    112a:	82 e0       	ldi	r24, 0x02	; 2
    112c:	80 93 63 03 	sts	0x0363, r24
        eBytePos = BYTE_HIGH_NIBBLE;
    1130:	10 92 67 03 	sts	0x0367, r1
    1134:	71 c0       	rjmp	.+226    	; 0x1218 <__stack+0x119>
        /* Send the data block. Each data byte is encoded as a character hex
         * stream with the high nibble sent first and the low nibble sent
         * last. If all data bytes are exhausted we send a '\r' character
         * to end the transmission. */
    case STATE_TX_DATA:
        if( usSndBufferCount > 0 )
    1136:	80 91 6a 03 	lds	r24, 0x036A
    113a:	90 91 6b 03 	lds	r25, 0x036B
    113e:	89 2b       	or	r24, r25
    1140:	09 f4       	brne	.+2      	; 0x1144 <__stack+0x45>
    1142:	4c c0       	rjmp	.+152    	; 0x11dc <__stack+0xdd>
        {
            switch ( eBytePos )
    1144:	80 91 67 03 	lds	r24, 0x0367
    1148:	88 23       	and	r24, r24
    114a:	21 f0       	breq	.+8      	; 0x1154 <__stack+0x55>
    114c:	81 30       	cpi	r24, 0x01	; 1
    114e:	09 f0       	breq	.+2      	; 0x1152 <__stack+0x53>
    1150:	63 c0       	rjmp	.+198    	; 0x1218 <__stack+0x119>
    1152:	1a c0       	rjmp	.+52     	; 0x1188 <__stack+0x89>
            {
            case BYTE_HIGH_NIBBLE:
                ucByte = prvucMBBIN2CHAR( ( UCHAR )( *pucSndBufferCur >> 4 ) );
    1154:	e0 91 68 03 	lds	r30, 0x0368
    1158:	f0 91 69 03 	lds	r31, 0x0369
    115c:	e0 81       	ld	r30, Z
    115e:	e2 95       	swap	r30
    1160:	ef 70       	andi	r30, 0x0F	; 15
}

static          UCHAR
prvucMBBIN2CHAR( UCHAR ucByte )
{
    if( ucByte <= 0x09 )
    1162:	ea 30       	cpi	r30, 0x0A	; 10
    1164:	18 f4       	brcc	.+6      	; 0x116c <__stack+0x6d>
    {
        return ( UCHAR )( '0' + ucByte );
    1166:	8e 2f       	mov	r24, r30
    1168:	80 5d       	subi	r24, 0xD0	; 208
    116a:	08 c0       	rjmp	.+16     	; 0x117c <__stack+0x7d>
    }
    else if( ( ucByte >= 0x0A ) && ( ucByte <= 0x0F ) )
    116c:	8e 2f       	mov	r24, r30
    116e:	8a 50       	subi	r24, 0x0A	; 10
    1170:	86 30       	cpi	r24, 0x06	; 6
    1172:	10 f0       	brcs	.+4      	; 0x1178 <__stack+0x79>
    1174:	80 e3       	ldi	r24, 0x30	; 48
    1176:	02 c0       	rjmp	.+4      	; 0x117c <__stack+0x7d>
    {
        return ( UCHAR )( ucByte - 0x0A + 'A' );
    1178:	8e 2f       	mov	r24, r30
    117a:	89 5c       	subi	r24, 0xC9	; 201
        {
            switch ( eBytePos )
            {
            case BYTE_HIGH_NIBBLE:
                ucByte = prvucMBBIN2CHAR( ( UCHAR )( *pucSndBufferCur >> 4 ) );
                xMBPortSerialPutByte( ( CHAR ) ucByte );
    117c:	0e 94 c2 0e 	call	0x1d84	; 0x1d84 <xMBPortSerialPutByte>
                eBytePos = BYTE_LOW_NIBBLE;
    1180:	81 e0       	ldi	r24, 0x01	; 1
    1182:	80 93 67 03 	sts	0x0367, r24
    1186:	48 c0       	rjmp	.+144    	; 0x1218 <__stack+0x119>
                break;

            case BYTE_LOW_NIBBLE:
                ucByte = prvucMBBIN2CHAR( ( UCHAR )( *pucSndBufferCur & 0x0F ) );
    1188:	e0 91 68 03 	lds	r30, 0x0368
    118c:	f0 91 69 03 	lds	r31, 0x0369
    1190:	e0 81       	ld	r30, Z
    1192:	ef 70       	andi	r30, 0x0F	; 15
}

static          UCHAR
prvucMBBIN2CHAR( UCHAR ucByte )
{
    if( ucByte <= 0x09 )
    1194:	ea 30       	cpi	r30, 0x0A	; 10
    1196:	18 f4       	brcc	.+6      	; 0x119e <__stack+0x9f>
    {
        return ( UCHAR )( '0' + ucByte );
    1198:	8e 2f       	mov	r24, r30
    119a:	80 5d       	subi	r24, 0xD0	; 208
    119c:	08 c0       	rjmp	.+16     	; 0x11ae <__stack+0xaf>
    }
    else if( ( ucByte >= 0x0A ) && ( ucByte <= 0x0F ) )
    119e:	8e 2f       	mov	r24, r30
    11a0:	8a 50       	subi	r24, 0x0A	; 10
    11a2:	86 30       	cpi	r24, 0x06	; 6
    11a4:	10 f0       	brcs	.+4      	; 0x11aa <__stack+0xab>
    11a6:	80 e3       	ldi	r24, 0x30	; 48
    11a8:	02 c0       	rjmp	.+4      	; 0x11ae <__stack+0xaf>
    {
        return ( UCHAR )( ucByte - 0x0A + 'A' );
    11aa:	8e 2f       	mov	r24, r30
    11ac:	89 5c       	subi	r24, 0xC9	; 201
                eBytePos = BYTE_LOW_NIBBLE;
                break;

            case BYTE_LOW_NIBBLE:
                ucByte = prvucMBBIN2CHAR( ( UCHAR )( *pucSndBufferCur & 0x0F ) );
                xMBPortSerialPutByte( ( CHAR )ucByte );
    11ae:	0e 94 c2 0e 	call	0x1d84	; 0x1d84 <xMBPortSerialPutByte>
                pucSndBufferCur++;
    11b2:	80 91 68 03 	lds	r24, 0x0368
    11b6:	90 91 69 03 	lds	r25, 0x0369
    11ba:	01 96       	adiw	r24, 0x01	; 1
    11bc:	90 93 69 03 	sts	0x0369, r25
    11c0:	80 93 68 03 	sts	0x0368, r24
                eBytePos = BYTE_HIGH_NIBBLE;
    11c4:	10 92 67 03 	sts	0x0367, r1
                usSndBufferCount--;
    11c8:	80 91 6a 03 	lds	r24, 0x036A
    11cc:	90 91 6b 03 	lds	r25, 0x036B
    11d0:	01 97       	sbiw	r24, 0x01	; 1
    11d2:	90 93 6b 03 	sts	0x036B, r25
    11d6:	80 93 6a 03 	sts	0x036A, r24
    11da:	1e c0       	rjmp	.+60     	; 0x1218 <__stack+0x119>
                break;
            }
        }
        else
        {
            xMBPortSerialPutByte( MB_ASCII_DEFAULT_CR );
    11dc:	8d e0       	ldi	r24, 0x0D	; 13
    11de:	0e 94 c2 0e 	call	0x1d84	; 0x1d84 <xMBPortSerialPutByte>
            eSndState = STATE_TX_END;
    11e2:	83 e0       	ldi	r24, 0x03	; 3
    11e4:	05 c0       	rjmp	.+10     	; 0x11f0 <__stack+0xf1>
        }
        break;

        /* Finish the frame by sending a LF character. */
    case STATE_TX_END:
        xMBPortSerialPutByte( ( CHAR )ucMBLFCharacter );
    11e6:	80 91 6c 03 	lds	r24, 0x036C
    11ea:	0e 94 c2 0e 	call	0x1d84	; 0x1d84 <xMBPortSerialPutByte>
        /* We need another state to make sure that the CR character has
         * been sent. */
        eSndState = STATE_TX_NOTIFY;
    11ee:	84 e0       	ldi	r24, 0x04	; 4
    11f0:	80 93 63 03 	sts	0x0363, r24
    11f4:	11 c0       	rjmp	.+34     	; 0x1218 <__stack+0x119>
        break;

        /* Notify the task which called eMBASCIISend that the frame has
         * been sent. */
    case STATE_TX_NOTIFY:
        eSndState = STATE_TX_IDLE;
    11f6:	10 92 63 03 	sts	0x0363, r1
        xNeedPoll = xMBPortEventPost( EV_FRAME_SENT );
    11fa:	83 e0       	ldi	r24, 0x03	; 3
    11fc:	0e 94 a3 0d 	call	0x1b46	; 0x1b46 <xMBPortEventPost>
    1200:	18 2f       	mov	r17, r24

        /* Disable transmitter. This prevents another transmit buffer
         * empty interrupt. */
        vMBPortSerialEnable( TRUE, FALSE );
    1202:	81 e0       	ldi	r24, 0x01	; 1
    1204:	60 e0       	ldi	r22, 0x00	; 0
    1206:	0e 94 b6 0d 	call	0x1b6c	; 0x1b6c <vMBPortSerialEnable>
        eSndState = STATE_TX_IDLE;
    120a:	10 92 63 03 	sts	0x0363, r1
    120e:	05 c0       	rjmp	.+10     	; 0x121a <__stack+0x11b>

        /* We should not get a transmitter event if the transmitter is in
         * idle state.  */
    case STATE_TX_IDLE:
        /* enable receiver/disable transmitter. */
        vMBPortSerialEnable( TRUE, FALSE );
    1210:	81 e0       	ldi	r24, 0x01	; 1
    1212:	60 e0       	ldi	r22, 0x00	; 0
    1214:	0e 94 b6 0d 	call	0x1b6c	; 0x1b6c <vMBPortSerialEnable>
    1218:	10 e0       	ldi	r17, 0x00	; 0
        break;
    }

    return xNeedPoll;
}
    121a:	81 2f       	mov	r24, r17
    121c:	1f 91       	pop	r17
    121e:	08 95       	ret

00001220 <eMBASCIISend>:
    return eStatus;
}

eMBErrorCode
eMBASCIISend( UCHAR ucSlaveAddress, const UCHAR * pucFrame, USHORT usLength )
{
    1220:	28 2f       	mov	r18, r24
    eMBErrorCode    eStatus = MB_ENOERR;
    UCHAR           usLRC;

    ENTER_CRITICAL_SECTION(  );
    1222:	f8 94       	cli
    /* Check if the receiver is still in idle state. If not we where too
     * slow with processing the received frame and the master sent another
     * frame on the network. We have to abort sending the frame.
     */
    if( eRcvState == STATE_RX_IDLE )
    1224:	80 91 64 03 	lds	r24, 0x0364
    1228:	88 23       	and	r24, r24
    122a:	11 f0       	breq	.+4      	; 0x1230 <eMBASCIISend+0x10>
    122c:	85 e0       	ldi	r24, 0x05	; 5
    122e:	3a c0       	rjmp	.+116    	; 0x12a4 <eMBASCIISend+0x84>
    {
        /* First byte before the Modbus-PDU is the slave address. */
        pucSndBufferCur = ( UCHAR * ) pucFrame - 1;
    1230:	fb 01       	movw	r30, r22
    1232:	31 97       	sbiw	r30, 0x01	; 1
    1234:	f0 93 69 03 	sts	0x0369, r31
    1238:	e0 93 68 03 	sts	0x0368, r30
        usSndBufferCount = 1;
    123c:	81 e0       	ldi	r24, 0x01	; 1
    123e:	90 e0       	ldi	r25, 0x00	; 0
    1240:	90 93 6b 03 	sts	0x036B, r25
    1244:	80 93 6a 03 	sts	0x036A, r24

        /* Now copy the Modbus-PDU into the Modbus-Serial-Line-PDU. */
        pucSndBufferCur[MB_SER_PDU_ADDR_OFF] = ucSlaveAddress;
    1248:	20 83       	st	Z, r18
        usSndBufferCount += usLength;
    124a:	80 91 6a 03 	lds	r24, 0x036A
    124e:	90 91 6b 03 	lds	r25, 0x036B
    1252:	84 0f       	add	r24, r20
    1254:	95 1f       	adc	r25, r21
    1256:	90 93 6b 03 	sts	0x036B, r25
    125a:	80 93 6a 03 	sts	0x036A, r24

        /* Calculate LRC checksum for Modbus-Serial-Line-PDU. */
        usLRC = prvucMBLRC( ( UCHAR * ) pucSndBufferCur, usSndBufferCount );
    125e:	20 91 6a 03 	lds	r18, 0x036A
    1262:	30 91 6b 03 	lds	r19, 0x036B
    1266:	40 e0       	ldi	r20, 0x00	; 0
    1268:	04 c0       	rjmp	.+8      	; 0x1272 <eMBASCIISend+0x52>
{
    UCHAR           ucLRC = 0;  /* LRC char initialized */

    while( usLen-- )
    {
        ucLRC += *pucFrame++;   /* Add buffer byte without carry */
    126a:	81 91       	ld	r24, Z+
    126c:	48 0f       	add	r20, r24
    126e:	21 50       	subi	r18, 0x01	; 1
    1270:	30 40       	sbci	r19, 0x00	; 0
static          UCHAR
prvucMBLRC( UCHAR * pucFrame, USHORT usLen )
{
    UCHAR           ucLRC = 0;  /* LRC char initialized */

    while( usLen-- )
    1272:	21 15       	cp	r18, r1
    1274:	31 05       	cpc	r19, r1
    1276:	c9 f7       	brne	.-14     	; 0x126a <eMBASCIISend+0x4a>
    {
        ucLRC += *pucFrame++;   /* Add buffer byte without carry */
    }

    /* Return twos complement */
    ucLRC = ( UCHAR ) ( -( ( CHAR ) ucLRC ) );
    1278:	41 95       	neg	r20
        pucSndBufferCur[MB_SER_PDU_ADDR_OFF] = ucSlaveAddress;
        usSndBufferCount += usLength;

        /* Calculate LRC checksum for Modbus-Serial-Line-PDU. */
        usLRC = prvucMBLRC( ( UCHAR * ) pucSndBufferCur, usSndBufferCount );
        ucASCIIBuf[usSndBufferCount++] = usLRC;
    127a:	80 91 6a 03 	lds	r24, 0x036A
    127e:	90 91 6b 03 	lds	r25, 0x036B
    1282:	fc 01       	movw	r30, r24
    1284:	e5 5f       	subi	r30, 0xF5	; 245
    1286:	f9 4f       	sbci	r31, 0xF9	; 249
    1288:	40 83       	st	Z, r20
    128a:	01 96       	adiw	r24, 0x01	; 1
    128c:	90 93 6b 03 	sts	0x036B, r25
    1290:	80 93 6a 03 	sts	0x036A, r24

        /* Activate the transmitter. */
        eSndState = STATE_TX_START;
    1294:	81 e0       	ldi	r24, 0x01	; 1
    1296:	80 93 63 03 	sts	0x0363, r24
        vMBPortSerialEnable( FALSE, TRUE );
    129a:	80 e0       	ldi	r24, 0x00	; 0
    129c:	61 e0       	ldi	r22, 0x01	; 1
    129e:	0e 94 b6 0d 	call	0x1b6c	; 0x1b6c <vMBPortSerialEnable>
    12a2:	80 e0       	ldi	r24, 0x00	; 0
    }
    else
    {
        eStatus = MB_EIO;
    }
    EXIT_CRITICAL_SECTION(  );
    12a4:	78 94       	sei
    return eStatus;
}
    12a6:	08 95       	ret

000012a8 <eMBASCIIStop>:
}

void
eMBASCIIStop( void )
{
    ENTER_CRITICAL_SECTION(  );
    12a8:	f8 94       	cli
    vMBPortSerialEnable( FALSE, FALSE );
    12aa:	80 e0       	ldi	r24, 0x00	; 0
    12ac:	60 e0       	ldi	r22, 0x00	; 0
    12ae:	0e 94 b6 0d 	call	0x1b6c	; 0x1b6c <vMBPortSerialEnable>
    vMBPortTimersDisable(  );
    12b2:	0e 94 3e 0f 	call	0x1e7c	; 0x1e7c <vMBPortTimersDisable>
    EXIT_CRITICAL_SECTION(  );
    12b6:	78 94       	sei
}
    12b8:	08 95       	ret

000012ba <eMBASCIIStart>:
}

void
eMBASCIIStart( void )
{
    ENTER_CRITICAL_SECTION(  );
    12ba:	f8 94       	cli
    vMBPortSerialEnable( TRUE, FALSE );
    12bc:	81 e0       	ldi	r24, 0x01	; 1
    12be:	60 e0       	ldi	r22, 0x00	; 0
    12c0:	0e 94 b6 0d 	call	0x1b6c	; 0x1b6c <vMBPortSerialEnable>
    eRcvState = STATE_RX_IDLE;
    12c4:	10 92 64 03 	sts	0x0364, r1
    EXIT_CRITICAL_SECTION(  );
    12c8:	78 94       	sei

    /* No special startup required for ASCII. */
    ( void )xMBPortEventPost( EV_READY );
    12ca:	80 e0       	ldi	r24, 0x00	; 0
    12cc:	0e 94 a3 0d 	call	0x1b46	; 0x1b46 <xMBPortEventPost>
}
    12d0:	08 95       	ret

000012d2 <xMBASCIIReceiveFSM>:
    return eStatus;
}

BOOL
xMBASCIIReceiveFSM( void )
{
    12d2:	df 93       	push	r29
    12d4:	cf 93       	push	r28
    12d6:	0f 92       	push	r0
    12d8:	cd b7       	in	r28, 0x3d	; 61
    12da:	de b7       	in	r29, 0x3e	; 62
    UCHAR           ucByte;
    UCHAR           ucResult;

    assert( eSndState == STATE_TX_IDLE );

    ( void )xMBPortSerialGetByte( ( CHAR * ) & ucByte );
    12dc:	ce 01       	movw	r24, r28
    12de:	01 96       	adiw	r24, 0x01	; 1
    12e0:	0e 94 c6 0e 	call	0x1d8c	; 0x1d8c <xMBPortSerialGetByte>
    switch ( eRcvState )
    12e4:	80 91 64 03 	lds	r24, 0x0364
    12e8:	81 30       	cpi	r24, 0x01	; 1
    12ea:	39 f0       	breq	.+14     	; 0x12fa <xMBASCIIReceiveFSM+0x28>
    12ec:	81 30       	cpi	r24, 0x01	; 1
    12ee:	08 f4       	brcc	.+2      	; 0x12f2 <xMBASCIIReceiveFSM+0x20>
    12f0:	75 c0       	rjmp	.+234    	; 0x13dc <xMBASCIIReceiveFSM+0x10a>
    12f2:	82 30       	cpi	r24, 0x02	; 2
    12f4:	09 f0       	breq	.+2      	; 0x12f8 <xMBASCIIReceiveFSM+0x26>
    12f6:	80 c0       	rjmp	.+256    	; 0x13f8 <xMBASCIIReceiveFSM+0x126>
    12f8:	53 c0       	rjmp	.+166    	; 0x13a0 <xMBASCIIReceiveFSM+0xce>
         * block. Other characters are part of the data block and their
         * ASCII value is converted back to a binary representation.
         */
    case STATE_RX_RCV:
        /* Enable timer for character timeout. */
        vMBPortTimersEnable(  );
    12fa:	0e 94 2c 0f 	call	0x1e58	; 0x1e58 <vMBPortTimersEnable>
        if( ucByte == ':' )
    12fe:	99 81       	ldd	r25, Y+1	; 0x01
    1300:	9a 33       	cpi	r25, 0x3A	; 58
    1302:	39 f4       	brne	.+14     	; 0x1312 <xMBASCIIReceiveFSM+0x40>
        {
            /* Empty receive buffer. */
            eBytePos = BYTE_HIGH_NIBBLE;
    1304:	10 92 67 03 	sts	0x0367, r1
            usRcvBufferPos = 0;
    1308:	10 92 66 03 	sts	0x0366, r1
    130c:	10 92 65 03 	sts	0x0365, r1
    1310:	73 c0       	rjmp	.+230    	; 0x13f8 <xMBASCIIReceiveFSM+0x126>
        }
        else if( ucByte == MB_ASCII_DEFAULT_CR )
    1312:	9d 30       	cpi	r25, 0x0D	; 13
    1314:	11 f4       	brne	.+4      	; 0x131a <xMBASCIIReceiveFSM+0x48>
        {
            eRcvState = STATE_RX_WAIT_EOF;
    1316:	82 e0       	ldi	r24, 0x02	; 2
    1318:	6d c0       	rjmp	.+218    	; 0x13f4 <xMBASCIIReceiveFSM+0x122>


static          UCHAR
prvucMBCHAR2BIN( UCHAR ucCharacter )
{
    if( ( ucCharacter >= '0' ) && ( ucCharacter <= '9' ) )
    131a:	29 2f       	mov	r18, r25
    131c:	20 53       	subi	r18, 0x30	; 48
    131e:	2a 30       	cpi	r18, 0x0A	; 10
    1320:	40 f0       	brcs	.+16     	; 0x1332 <xMBASCIIReceiveFSM+0x60>
    {
        return ( UCHAR )( ucCharacter - '0' );
    }
    else if( ( ucCharacter >= 'A' ) && ( ucCharacter <= 'F' ) )
    1322:	89 2f       	mov	r24, r25
    1324:	81 54       	subi	r24, 0x41	; 65
    1326:	86 30       	cpi	r24, 0x06	; 6
    1328:	10 f0       	brcs	.+4      	; 0x132e <xMBASCIIReceiveFSM+0x5c>
    132a:	2f ef       	ldi	r18, 0xFF	; 255
    132c:	02 c0       	rjmp	.+4      	; 0x1332 <xMBASCIIReceiveFSM+0x60>
    {
        return ( UCHAR )( ucCharacter - 'A' + 0x0A );
    132e:	29 2f       	mov	r18, r25
    1330:	27 53       	subi	r18, 0x37	; 55
            eRcvState = STATE_RX_WAIT_EOF;
        }
        else
        {
            ucResult = prvucMBCHAR2BIN( ucByte );
            switch ( eBytePos )
    1332:	80 91 67 03 	lds	r24, 0x0367
    1336:	88 23       	and	r24, r24
    1338:	21 f0       	breq	.+8      	; 0x1342 <xMBASCIIReceiveFSM+0x70>
    133a:	81 30       	cpi	r24, 0x01	; 1
    133c:	09 f0       	breq	.+2      	; 0x1340 <xMBASCIIReceiveFSM+0x6e>
    133e:	5c c0       	rjmp	.+184    	; 0x13f8 <xMBASCIIReceiveFSM+0x126>
    1340:	1a c0       	rjmp	.+52     	; 0x1376 <xMBASCIIReceiveFSM+0xa4>
            {
                /* High nibble of the byte comes first. We check for
                 * a buffer overflow here. */
            case BYTE_HIGH_NIBBLE:
                if( usRcvBufferPos < MB_SER_PDU_SIZE_MAX )
    1342:	80 91 65 03 	lds	r24, 0x0365
    1346:	90 91 66 03 	lds	r25, 0x0366
    134a:	8f 3f       	cpi	r24, 0xFF	; 255
    134c:	91 05       	cpc	r25, r1
    134e:	09 f0       	breq	.+2      	; 0x1352 <xMBASCIIReceiveFSM+0x80>
    1350:	68 f4       	brcc	.+26     	; 0x136c <xMBASCIIReceiveFSM+0x9a>
                {
                    ucASCIIBuf[usRcvBufferPos] = ( UCHAR )( ucResult << 4 );
    1352:	e0 91 65 03 	lds	r30, 0x0365
    1356:	f0 91 66 03 	lds	r31, 0x0366
    135a:	e5 5f       	subi	r30, 0xF5	; 245
    135c:	f9 4f       	sbci	r31, 0xF9	; 249
    135e:	22 95       	swap	r18
    1360:	20 7f       	andi	r18, 0xF0	; 240
    1362:	20 83       	st	Z, r18
                    eBytePos = BYTE_LOW_NIBBLE;
    1364:	81 e0       	ldi	r24, 0x01	; 1
    1366:	80 93 67 03 	sts	0x0367, r24
    136a:	46 c0       	rjmp	.+140    	; 0x13f8 <xMBASCIIReceiveFSM+0x126>
                }
                else
                {
                    /* not handled in Modbus specification but seems
                     * a resonable implementation. */
                    eRcvState = STATE_RX_IDLE;
    136c:	10 92 64 03 	sts	0x0364, r1
                    /* Disable previously activated timer because of error state. */
                    vMBPortTimersDisable(  );
    1370:	0e 94 3e 0f 	call	0x1e7c	; 0x1e7c <vMBPortTimersDisable>
    1374:	41 c0       	rjmp	.+130    	; 0x13f8 <xMBASCIIReceiveFSM+0x126>
                }
                break;

            case BYTE_LOW_NIBBLE:
                ucASCIIBuf[usRcvBufferPos] |= ucResult;
    1376:	e0 91 65 03 	lds	r30, 0x0365
    137a:	f0 91 66 03 	lds	r31, 0x0366
    137e:	e5 5f       	subi	r30, 0xF5	; 245
    1380:	f9 4f       	sbci	r31, 0xF9	; 249
    1382:	80 81       	ld	r24, Z
    1384:	28 2b       	or	r18, r24
    1386:	20 83       	st	Z, r18
                usRcvBufferPos++;
    1388:	80 91 65 03 	lds	r24, 0x0365
    138c:	90 91 66 03 	lds	r25, 0x0366
    1390:	01 96       	adiw	r24, 0x01	; 1
    1392:	90 93 66 03 	sts	0x0366, r25
    1396:	80 93 65 03 	sts	0x0365, r24
                eBytePos = BYTE_HIGH_NIBBLE;
    139a:	10 92 67 03 	sts	0x0367, r1
    139e:	2c c0       	rjmp	.+88     	; 0x13f8 <xMBASCIIReceiveFSM+0x126>
            }
        }
        break;

    case STATE_RX_WAIT_EOF:
        if( ucByte == ucMBLFCharacter )
    13a0:	99 81       	ldd	r25, Y+1	; 0x01
    13a2:	80 91 6c 03 	lds	r24, 0x036C
    13a6:	98 17       	cp	r25, r24
    13a8:	41 f4       	brne	.+16     	; 0x13ba <xMBASCIIReceiveFSM+0xe8>
        {
            /* Disable character timeout timer because all characters are
             * received. */
            vMBPortTimersDisable(  );
    13aa:	0e 94 3e 0f 	call	0x1e7c	; 0x1e7c <vMBPortTimersDisable>
            /* Receiver is again in idle state. */
            eRcvState = STATE_RX_IDLE;
    13ae:	10 92 64 03 	sts	0x0364, r1

            /* Notify the caller of eMBASCIIReceive that a new frame
             * was received. */
            xNeedPoll = xMBPortEventPost( EV_FRAME_RECEIVED );
    13b2:	81 e0       	ldi	r24, 0x01	; 1
    13b4:	0e 94 a3 0d 	call	0x1b46	; 0x1b46 <xMBPortEventPost>
    13b8:	20 c0       	rjmp	.+64     	; 0x13fa <xMBASCIIReceiveFSM+0x128>
        }
        else if( ucByte == ':' )
    13ba:	9a 33       	cpi	r25, 0x3A	; 58
    13bc:	61 f4       	brne	.+24     	; 0x13d6 <xMBASCIIReceiveFSM+0x104>
        {
            /* Empty receive buffer and back to receive state. */
            eBytePos = BYTE_HIGH_NIBBLE;
    13be:	10 92 67 03 	sts	0x0367, r1
            usRcvBufferPos = 0;
    13c2:	10 92 66 03 	sts	0x0366, r1
    13c6:	10 92 65 03 	sts	0x0365, r1
            eRcvState = STATE_RX_RCV;
    13ca:	81 e0       	ldi	r24, 0x01	; 1
    13cc:	80 93 64 03 	sts	0x0364, r24

            /* Enable timer for character timeout. */
            vMBPortTimersEnable(  );
    13d0:	0e 94 2c 0f 	call	0x1e58	; 0x1e58 <vMBPortTimersEnable>
    13d4:	11 c0       	rjmp	.+34     	; 0x13f8 <xMBASCIIReceiveFSM+0x126>
        }
        else
        {
            /* Frame is not okay. Delete entire frame. */
            eRcvState = STATE_RX_IDLE;
    13d6:	10 92 64 03 	sts	0x0364, r1
    13da:	0e c0       	rjmp	.+28     	; 0x13f8 <xMBASCIIReceiveFSM+0x126>
        }
        break;

    case STATE_RX_IDLE:
        if( ucByte == ':' )
    13dc:	89 81       	ldd	r24, Y+1	; 0x01
    13de:	8a 33       	cpi	r24, 0x3A	; 58
    13e0:	59 f4       	brne	.+22     	; 0x13f8 <xMBASCIIReceiveFSM+0x126>
        {
            /* Enable timer for character timeout. */
            vMBPortTimersEnable(  );
    13e2:	0e 94 2c 0f 	call	0x1e58	; 0x1e58 <vMBPortTimersEnable>
            /* Reset the input buffers to store the frame. */
            usRcvBufferPos = 0;;
    13e6:	10 92 66 03 	sts	0x0366, r1
    13ea:	10 92 65 03 	sts	0x0365, r1
            eBytePos = BYTE_HIGH_NIBBLE;
    13ee:	10 92 67 03 	sts	0x0367, r1
            eRcvState = STATE_RX_RCV;
    13f2:	81 e0       	ldi	r24, 0x01	; 1
    13f4:	80 93 64 03 	sts	0x0364, r24
    13f8:	80 e0       	ldi	r24, 0x00	; 0
        }
        break;
    }

    return xNeedPoll;
}
    13fa:	0f 90       	pop	r0
    13fc:	cf 91       	pop	r28
    13fe:	df 91       	pop	r29
    1400:	08 95       	ret

00001402 <eMBASCIIInit>:
static volatile UCHAR ucMBLFCharacter;

/* ----------------------- Start implementation -----------------------------*/
eMBErrorCode
eMBASCIIInit( UCHAR ucSlaveAddress, UCHAR ucPort, ULONG ulBaudRate, eMBParity eParity )
{
    1402:	0f 93       	push	r16
    1404:	86 2f       	mov	r24, r22
    eMBErrorCode    eStatus = MB_ENOERR;
    ( void )ucSlaveAddress;
    
    ENTER_CRITICAL_SECTION(  );
    1406:	f8 94       	cli
    ucMBLFCharacter = MB_ASCII_DEFAULT_LF;
    1408:	9a e0       	ldi	r25, 0x0A	; 10
    140a:	90 93 6c 03 	sts	0x036C, r25

    if( xMBPortSerialInit( ucPort, ulBaudRate, 7, eParity ) != TRUE )
    140e:	ba 01       	movw	r22, r20
    1410:	a9 01       	movw	r20, r18
    1412:	27 e0       	ldi	r18, 0x07	; 7
    1414:	0e 94 c7 0d 	call	0x1b8e	; 0x1b8e <xMBPortSerialInit>
    1418:	81 30       	cpi	r24, 0x01	; 1
    141a:	41 f4       	brne	.+16     	; 0x142c <eMBASCIIInit+0x2a>
    {
        eStatus = MB_EPORTERR;
    }
    else if( xMBPortTimersInit( MB_ASCII_TIMEOUT_SEC * 20000UL ) != TRUE )
    141c:	80 e2       	ldi	r24, 0x20	; 32
    141e:	9e e4       	ldi	r25, 0x4E	; 78
    1420:	0e 94 48 0f 	call	0x1e90	; 0x1e90 <xMBPortTimersInit>
    1424:	81 30       	cpi	r24, 0x01	; 1
    1426:	11 f4       	brne	.+4      	; 0x142c <eMBASCIIInit+0x2a>
    1428:	80 e0       	ldi	r24, 0x00	; 0
    142a:	01 c0       	rjmp	.+2      	; 0x142e <eMBASCIIInit+0x2c>
    142c:	83 e0       	ldi	r24, 0x03	; 3
    {
        eStatus = MB_EPORTERR;
    }

    EXIT_CRITICAL_SECTION(  );
    142e:	78 94       	sei

    return eStatus;
}
    1430:	0f 91       	pop	r16
    1432:	08 95       	ret

00001434 <eMBFuncWriteMultipleCoils>:
#endif

#if MB_FUNC_WRITE_MULTIPLE_COILS_ENABLED > 0
eMBException
eMBFuncWriteMultipleCoils( UCHAR * pucFrame, USHORT * usLen )
{
    1434:	cf 93       	push	r28
    1436:	df 93       	push	r29
    1438:	fc 01       	movw	r30, r24
    143a:	eb 01       	movw	r28, r22
    UCHAR           ucByteCountVerify;

    eMBException    eStatus = MB_EX_NONE;
    eMBErrorCode    eRegStatus;

    if( *usLen > ( MB_PDU_FUNC_WRITE_SIZE + MB_PDU_SIZE_MIN ) )
    143c:	88 81       	ld	r24, Y
    143e:	99 81       	ldd	r25, Y+1	; 0x01
    1440:	06 97       	sbiw	r24, 0x06	; 6
    1442:	c0 f1       	brcs	.+112    	; 0x14b4 <eMBFuncWriteMultipleCoils+0x80>
    {
        usRegAddress = ( USHORT )( pucFrame[MB_PDU_FUNC_WRITE_MUL_ADDR_OFF] << 8 );
    1444:	a1 81       	ldd	r26, Z+1	; 0x01
        usRegAddress |= ( USHORT )( pucFrame[MB_PDU_FUNC_WRITE_MUL_ADDR_OFF + 1] );
    1446:	b2 81       	ldd	r27, Z+2	; 0x02
        usRegAddress++;

        usCoilCnt = ( USHORT )( pucFrame[MB_PDU_FUNC_WRITE_MUL_COILCNT_OFF] << 8 );
    1448:	93 81       	ldd	r25, Z+3	; 0x03
    144a:	80 e0       	ldi	r24, 0x00	; 0
        usCoilCnt |= ( USHORT )( pucFrame[MB_PDU_FUNC_WRITE_MUL_COILCNT_OFF + 1] );
    144c:	24 81       	ldd	r18, Z+4	; 0x04
    144e:	42 2f       	mov	r20, r18
    1450:	50 e0       	ldi	r21, 0x00	; 0
    1452:	48 2b       	or	r20, r24
    1454:	59 2b       	or	r21, r25

        ucByteCount = pucFrame[MB_PDU_FUNC_WRITE_MUL_BYTECNT_OFF];
    1456:	35 81       	ldd	r19, Z+5	; 0x05

        /* Compute the number of expected bytes in the request. */
        if( ( usCoilCnt & 0x0007 ) != 0 )
    1458:	ca 01       	movw	r24, r20
    145a:	87 70       	andi	r24, 0x07	; 7
    145c:	90 70       	andi	r25, 0x00	; 0
    145e:	ba 01       	movw	r22, r20
    1460:	23 e0       	ldi	r18, 0x03	; 3
    1462:	76 95       	lsr	r23
    1464:	67 95       	ror	r22
    1466:	2a 95       	dec	r18
    1468:	e1 f7       	brne	.-8      	; 0x1462 <eMBFuncWriteMultipleCoils+0x2e>
    146a:	89 2b       	or	r24, r25
    146c:	19 f0       	breq	.+6      	; 0x1474 <eMBFuncWriteMultipleCoils+0x40>
        {
            ucByteCountVerify = ( UCHAR )( usCoilCnt / 8 + 1 );
    146e:	26 2f       	mov	r18, r22
    1470:	2f 5f       	subi	r18, 0xFF	; 255
    1472:	01 c0       	rjmp	.+2      	; 0x1476 <eMBFuncWriteMultipleCoils+0x42>
        }
        else
        {
            ucByteCountVerify = ( UCHAR )( usCoilCnt / 8 );
    1474:	26 2f       	mov	r18, r22
        }

        if( ( usCoilCnt >= 1 ) &&
    1476:	ca 01       	movw	r24, r20
    1478:	01 97       	sbiw	r24, 0x01	; 1
    147a:	80 5b       	subi	r24, 0xB0	; 176
    147c:	97 40       	sbci	r25, 0x07	; 7
    147e:	d0 f4       	brcc	.+52     	; 0x14b4 <eMBFuncWriteMultipleCoils+0x80>
    1480:	23 17       	cp	r18, r19
    1482:	c1 f4       	brne	.+48     	; 0x14b4 <eMBFuncWriteMultipleCoils+0x80>
    eMBException    eStatus = MB_EX_NONE;
    eMBErrorCode    eRegStatus;

    if( *usLen > ( MB_PDU_FUNC_WRITE_SIZE + MB_PDU_SIZE_MIN ) )
    {
        usRegAddress = ( USHORT )( pucFrame[MB_PDU_FUNC_WRITE_MUL_ADDR_OFF] << 8 );
    1484:	7a 2f       	mov	r23, r26
    1486:	60 e0       	ldi	r22, 0x00	; 0
        usRegAddress |= ( USHORT )( pucFrame[MB_PDU_FUNC_WRITE_MUL_ADDR_OFF + 1] );
    1488:	8b 2f       	mov	r24, r27
    148a:	90 e0       	ldi	r25, 0x00	; 0
    148c:	68 2b       	or	r22, r24
    148e:	79 2b       	or	r23, r25

        if( ( usCoilCnt >= 1 ) &&
            ( usCoilCnt <= MB_PDU_FUNC_WRITE_MUL_COILCNT_MAX ) &&
            ( ucByteCountVerify == ucByteCount ) )
        {
            eRegStatus =
    1490:	6f 5f       	subi	r22, 0xFF	; 255
    1492:	7f 4f       	sbci	r23, 0xFF	; 255
    1494:	cf 01       	movw	r24, r30
    1496:	06 96       	adiw	r24, 0x06	; 6
    1498:	21 e0       	ldi	r18, 0x01	; 1
    149a:	0e 94 57 03 	call	0x6ae	; 0x6ae <eMBRegCoilsCB>
                eMBRegCoilsCB( &pucFrame[MB_PDU_FUNC_WRITE_MUL_VALUES_OFF],
                               usRegAddress, usCoilCnt, MB_REG_WRITE );

            /* If an error occured convert it into a Modbus exception. */
            if( eRegStatus != MB_ENOERR )
    149e:	88 23       	and	r24, r24
    14a0:	19 f0       	breq	.+6      	; 0x14a8 <eMBFuncWriteMultipleCoils+0x74>
            {
                eStatus = prveMBError2Exception( eRegStatus );
    14a2:	0e 94 71 0d 	call	0x1ae2	; 0x1ae2 <prveMBError2Exception>
    14a6:	07 c0       	rjmp	.+14     	; 0x14b6 <eMBFuncWriteMultipleCoils+0x82>
            else
            {
                /* The response contains the function code, the starting address
                 * and the quantity of registers. We reuse the old values in the 
                 * buffer because they are still valid. */
                *usLen = MB_PDU_FUNC_WRITE_MUL_BYTECNT_OFF;
    14a8:	85 e0       	ldi	r24, 0x05	; 5
    14aa:	90 e0       	ldi	r25, 0x00	; 0
    14ac:	99 83       	std	Y+1, r25	; 0x01
    14ae:	88 83       	st	Y, r24
    14b0:	80 e0       	ldi	r24, 0x00	; 0
    14b2:	01 c0       	rjmp	.+2      	; 0x14b6 <eMBFuncWriteMultipleCoils+0x82>
    14b4:	83 e0       	ldi	r24, 0x03	; 3
        /* Can't be a valid write coil register request because the length
         * is incorrect. */
        eStatus = MB_EX_ILLEGAL_DATA_VALUE;
    }
    return eStatus;
}
    14b6:	df 91       	pop	r29
    14b8:	cf 91       	pop	r28
    14ba:	08 95       	ret

000014bc <eMBFuncWriteCoil>:
}

#if MB_FUNC_WRITE_COIL_ENABLED > 0
eMBException
eMBFuncWriteCoil( UCHAR * pucFrame, USHORT * usLen )
{
    14bc:	df 93       	push	r29
    14be:	cf 93       	push	r28
    14c0:	00 d0       	rcall	.+0      	; 0x14c2 <eMBFuncWriteCoil+0x6>
    14c2:	cd b7       	in	r28, 0x3d	; 61
    14c4:	de b7       	in	r29, 0x3e	; 62
    14c6:	dc 01       	movw	r26, r24
    14c8:	fb 01       	movw	r30, r22
    UCHAR           ucBuf[2];

    eMBException    eStatus = MB_EX_NONE;
    eMBErrorCode    eRegStatus;

    if( *usLen == ( MB_PDU_FUNC_WRITE_SIZE + MB_PDU_SIZE_MIN ) )
    14ca:	80 81       	ld	r24, Z
    14cc:	91 81       	ldd	r25, Z+1	; 0x01
    14ce:	05 97       	sbiw	r24, 0x05	; 5
    14d0:	61 f5       	brne	.+88     	; 0x152a <eMBFuncWriteCoil+0x6e>
    {
        usRegAddress = ( USHORT )( pucFrame[MB_PDU_FUNC_WRITE_ADDR_OFF] << 8 );
    14d2:	11 96       	adiw	r26, 0x01	; 1
    14d4:	2c 91       	ld	r18, X
    14d6:	11 97       	sbiw	r26, 0x01	; 1
        usRegAddress |= ( USHORT )( pucFrame[MB_PDU_FUNC_WRITE_ADDR_OFF + 1] );
    14d8:	12 96       	adiw	r26, 0x02	; 2
    14da:	3c 91       	ld	r19, X
    14dc:	12 97       	sbiw	r26, 0x02	; 2
        usRegAddress++;

        if( ( pucFrame[MB_PDU_FUNC_WRITE_VALUE_OFF + 1] == 0x00 ) &&
    14de:	14 96       	adiw	r26, 0x04	; 4
    14e0:	8c 91       	ld	r24, X
    14e2:	14 97       	sbiw	r26, 0x04	; 4
    14e4:	88 23       	and	r24, r24
    14e6:	09 f5       	brne	.+66     	; 0x152a <eMBFuncWriteCoil+0x6e>
    14e8:	13 96       	adiw	r26, 0x03	; 3
    14ea:	9c 91       	ld	r25, X
    14ec:	89 2f       	mov	r24, r25
    14ee:	81 50       	subi	r24, 0x01	; 1
    14f0:	8e 3f       	cpi	r24, 0xFE	; 254
    14f2:	d8 f0       	brcs	.+54     	; 0x152a <eMBFuncWriteCoil+0x6e>
            ( ( pucFrame[MB_PDU_FUNC_WRITE_VALUE_OFF] == 0xFF ) ||
              ( pucFrame[MB_PDU_FUNC_WRITE_VALUE_OFF] == 0x00 ) ) )
        {
            ucBuf[1] = 0;
    14f4:	1a 82       	std	Y+2, r1	; 0x02
            if( pucFrame[MB_PDU_FUNC_WRITE_VALUE_OFF] == 0xFF )
    14f6:	9f 3f       	cpi	r25, 0xFF	; 255
    14f8:	19 f4       	brne	.+6      	; 0x1500 <eMBFuncWriteCoil+0x44>
            {
                ucBuf[0] = 1;
    14fa:	81 e0       	ldi	r24, 0x01	; 1
    14fc:	89 83       	std	Y+1, r24	; 0x01
    14fe:	01 c0       	rjmp	.+2      	; 0x1502 <eMBFuncWriteCoil+0x46>
            }
            else
            {
                ucBuf[0] = 0;
    1500:	19 82       	std	Y+1, r1	; 0x01
    eMBException    eStatus = MB_EX_NONE;
    eMBErrorCode    eRegStatus;

    if( *usLen == ( MB_PDU_FUNC_WRITE_SIZE + MB_PDU_SIZE_MIN ) )
    {
        usRegAddress = ( USHORT )( pucFrame[MB_PDU_FUNC_WRITE_ADDR_OFF] << 8 );
    1502:	72 2f       	mov	r23, r18
    1504:	60 e0       	ldi	r22, 0x00	; 0
        usRegAddress |= ( USHORT )( pucFrame[MB_PDU_FUNC_WRITE_ADDR_OFF + 1] );
    1506:	83 2f       	mov	r24, r19
    1508:	90 e0       	ldi	r25, 0x00	; 0
    150a:	68 2b       	or	r22, r24
    150c:	79 2b       	or	r23, r25
            }
            else
            {
                ucBuf[0] = 0;
            }
            eRegStatus =
    150e:	6f 5f       	subi	r22, 0xFF	; 255
    1510:	7f 4f       	sbci	r23, 0xFF	; 255
    1512:	ce 01       	movw	r24, r28
    1514:	01 96       	adiw	r24, 0x01	; 1
    1516:	41 e0       	ldi	r20, 0x01	; 1
    1518:	50 e0       	ldi	r21, 0x00	; 0
    151a:	21 e0       	ldi	r18, 0x01	; 1
    151c:	0e 94 57 03 	call	0x6ae	; 0x6ae <eMBRegCoilsCB>
                eMBRegCoilsCB( &ucBuf[0], usRegAddress, 1, MB_REG_WRITE );

            /* If an error occured convert it into a Modbus exception. */
            if( eRegStatus != MB_ENOERR )
    1520:	88 23       	and	r24, r24
    1522:	21 f0       	breq	.+8      	; 0x152c <eMBFuncWriteCoil+0x70>
            {
                eStatus = prveMBError2Exception( eRegStatus );
    1524:	0e 94 71 0d 	call	0x1ae2	; 0x1ae2 <prveMBError2Exception>
    1528:	01 c0       	rjmp	.+2      	; 0x152c <eMBFuncWriteCoil+0x70>
    152a:	83 e0       	ldi	r24, 0x03	; 3
        /* Can't be a valid write coil register request because the length
         * is incorrect. */
        eStatus = MB_EX_ILLEGAL_DATA_VALUE;
    }
    return eStatus;
}
    152c:	0f 90       	pop	r0
    152e:	0f 90       	pop	r0
    1530:	cf 91       	pop	r28
    1532:	df 91       	pop	r29
    1534:	08 95       	ret

00001536 <eMBFuncReadCoils>:

#if MB_FUNC_READ_COILS_ENABLED > 0

eMBException
eMBFuncReadCoils( UCHAR * pucFrame, USHORT * usLen )
{
    1536:	0f 93       	push	r16
    1538:	1f 93       	push	r17
    153a:	cf 93       	push	r28
    153c:	df 93       	push	r29
    153e:	fc 01       	movw	r30, r24
    1540:	eb 01       	movw	r28, r22
    UCHAR          *pucFrameCur;

    eMBException    eStatus = MB_EX_NONE;
    eMBErrorCode    eRegStatus;

    if( *usLen == ( MB_PDU_FUNC_READ_SIZE + MB_PDU_SIZE_MIN ) )
    1542:	88 81       	ld	r24, Y
    1544:	99 81       	ldd	r25, Y+1	; 0x01
    1546:	05 97       	sbiw	r24, 0x05	; 5
    1548:	09 f0       	breq	.+2      	; 0x154c <eMBFuncReadCoils+0x16>
    154a:	47 c0       	rjmp	.+142    	; 0x15da <eMBFuncReadCoils+0xa4>
    {
        usRegAddress = ( USHORT )( pucFrame[MB_PDU_FUNC_READ_ADDR_OFF] << 8 );
    154c:	01 81       	ldd	r16, Z+1	; 0x01
        usRegAddress |= ( USHORT )( pucFrame[MB_PDU_FUNC_READ_ADDR_OFF + 1] );
    154e:	df 01       	movw	r26, r30
    1550:	12 96       	adiw	r26, 0x02	; 2
    1552:	32 81       	ldd	r19, Z+2	; 0x02
        usRegAddress++;

        usCoilCount = ( USHORT )( pucFrame[MB_PDU_FUNC_READ_COILCNT_OFF] << 8 );
    1554:	93 81       	ldd	r25, Z+3	; 0x03
    1556:	80 e0       	ldi	r24, 0x00	; 0
        usCoilCount |= ( USHORT )( pucFrame[MB_PDU_FUNC_READ_COILCNT_OFF + 1] );
    1558:	24 81       	ldd	r18, Z+4	; 0x04
    155a:	42 2f       	mov	r20, r18
    155c:	50 e0       	ldi	r21, 0x00	; 0
    155e:	48 2b       	or	r20, r24
    1560:	59 2b       	or	r21, r25

        /* Check if the number of registers to read is valid. If not
         * return Modbus illegal data value exception. 
         */
        if( ( usCoilCount >= 1 ) &&
    1562:	ca 01       	movw	r24, r20
    1564:	01 97       	sbiw	r24, 0x01	; 1
    1566:	8f 5c       	subi	r24, 0xCF	; 207
    1568:	97 40       	sbci	r25, 0x07	; 7
    156a:	b8 f5       	brcc	.+110    	; 0x15da <eMBFuncReadCoils+0xa4>
            ( usCoilCount < MB_PDU_FUNC_READ_COILCNT_MAX ) )
        {
            /* Set the current PDU data pointer to the beginning. */
            pucFrameCur = &pucFrame[MB_PDU_FUNC_OFF];
            *usLen = MB_PDU_FUNC_OFF;
    156c:	19 82       	std	Y+1, r1	; 0x01
    156e:	18 82       	st	Y, r1

            /* First byte contains the function code. */
            *pucFrameCur++ = MB_FUNC_READ_COILS;
    1570:	81 e0       	ldi	r24, 0x01	; 1
    1572:	80 83       	st	Z, r24
            *usLen += 1;
    1574:	88 81       	ld	r24, Y
    1576:	99 81       	ldd	r25, Y+1	; 0x01
    1578:	01 96       	adiw	r24, 0x01	; 1
    157a:	99 83       	std	Y+1, r25	; 0x01
    157c:	88 83       	st	Y, r24

            /* Test if the quantity of coils is a multiple of 8. If not last
             * byte is only partially field with unused coils set to zero. */
            if( ( usCoilCount & 0x0007 ) != 0 )
    157e:	ca 01       	movw	r24, r20
    1580:	87 70       	andi	r24, 0x07	; 7
    1582:	90 70       	andi	r25, 0x00	; 0
    1584:	ba 01       	movw	r22, r20
    1586:	13 e0       	ldi	r17, 0x03	; 3
    1588:	76 95       	lsr	r23
    158a:	67 95       	ror	r22
    158c:	1a 95       	dec	r17
    158e:	e1 f7       	brne	.-8      	; 0x1588 <eMBFuncReadCoils+0x52>
    1590:	89 2b       	or	r24, r25
    1592:	19 f0       	breq	.+6      	; 0x159a <eMBFuncReadCoils+0x64>
            {
                ucNBytes = ( UCHAR )( usCoilCount / 8 + 1 );
    1594:	16 2f       	mov	r17, r22
    1596:	1f 5f       	subi	r17, 0xFF	; 255
    1598:	01 c0       	rjmp	.+2      	; 0x159c <eMBFuncReadCoils+0x66>
            }
            else
            {
                ucNBytes = ( UCHAR )( usCoilCount / 8 );
    159a:	16 2f       	mov	r17, r22
            }
            *pucFrameCur++ = ucNBytes;
    159c:	11 83       	std	Z+1, r17	; 0x01
            *usLen += 1;
    159e:	88 81       	ld	r24, Y
    15a0:	99 81       	ldd	r25, Y+1	; 0x01
    15a2:	01 96       	adiw	r24, 0x01	; 1
    15a4:	99 83       	std	Y+1, r25	; 0x01
    15a6:	88 83       	st	Y, r24
    eMBException    eStatus = MB_EX_NONE;
    eMBErrorCode    eRegStatus;

    if( *usLen == ( MB_PDU_FUNC_READ_SIZE + MB_PDU_SIZE_MIN ) )
    {
        usRegAddress = ( USHORT )( pucFrame[MB_PDU_FUNC_READ_ADDR_OFF] << 8 );
    15a8:	70 2f       	mov	r23, r16
    15aa:	60 e0       	ldi	r22, 0x00	; 0
        usRegAddress |= ( USHORT )( pucFrame[MB_PDU_FUNC_READ_ADDR_OFF + 1] );
    15ac:	83 2f       	mov	r24, r19
    15ae:	90 e0       	ldi	r25, 0x00	; 0
    15b0:	68 2b       	or	r22, r24
    15b2:	79 2b       	or	r23, r25
                ucNBytes = ( UCHAR )( usCoilCount / 8 );
            }
            *pucFrameCur++ = ucNBytes;
            *usLen += 1;

            eRegStatus =
    15b4:	6f 5f       	subi	r22, 0xFF	; 255
    15b6:	7f 4f       	sbci	r23, 0xFF	; 255
    15b8:	cd 01       	movw	r24, r26
    15ba:	20 e0       	ldi	r18, 0x00	; 0
    15bc:	0e 94 57 03 	call	0x6ae	; 0x6ae <eMBRegCoilsCB>
                eMBRegCoilsCB( pucFrameCur, usRegAddress, usCoilCount,
                               MB_REG_READ );

            /* If an error occured convert it into a Modbus exception. */
            if( eRegStatus != MB_ENOERR )
    15c0:	88 23       	and	r24, r24
    15c2:	19 f0       	breq	.+6      	; 0x15ca <eMBFuncReadCoils+0x94>
            {
                eStatus = prveMBError2Exception( eRegStatus );
    15c4:	0e 94 71 0d 	call	0x1ae2	; 0x1ae2 <prveMBError2Exception>
    15c8:	09 c0       	rjmp	.+18     	; 0x15dc <eMBFuncReadCoils+0xa6>
            else
            {
                /* The response contains the function code, the starting address
                 * and the quantity of registers. We reuse the old values in the 
                 * buffer because they are still valid. */
                *usLen += ucNBytes;;
    15ca:	88 81       	ld	r24, Y
    15cc:	99 81       	ldd	r25, Y+1	; 0x01
    15ce:	81 0f       	add	r24, r17
    15d0:	91 1d       	adc	r25, r1
    15d2:	99 83       	std	Y+1, r25	; 0x01
    15d4:	88 83       	st	Y, r24
    15d6:	80 e0       	ldi	r24, 0x00	; 0
    15d8:	01 c0       	rjmp	.+2      	; 0x15dc <eMBFuncReadCoils+0xa6>
    15da:	83 e0       	ldi	r24, 0x03	; 3
        /* Can't be a valid read coil register request because the length
         * is incorrect. */
        eStatus = MB_EX_ILLEGAL_DATA_VALUE;
    }
    return eStatus;
}
    15dc:	df 91       	pop	r29
    15de:	cf 91       	pop	r28
    15e0:	1f 91       	pop	r17
    15e2:	0f 91       	pop	r16
    15e4:	08 95       	ret

000015e6 <eMBFuncReadDiscreteInputs>:

#if MB_FUNC_READ_COILS_ENABLED > 0

eMBException
eMBFuncReadDiscreteInputs( UCHAR * pucFrame, USHORT * usLen )
{
    15e6:	0f 93       	push	r16
    15e8:	1f 93       	push	r17
    15ea:	cf 93       	push	r28
    15ec:	df 93       	push	r29
    15ee:	fc 01       	movw	r30, r24
    15f0:	eb 01       	movw	r28, r22
    UCHAR          *pucFrameCur;

    eMBException    eStatus = MB_EX_NONE;
    eMBErrorCode    eRegStatus;

    if( *usLen == ( MB_PDU_FUNC_READ_SIZE + MB_PDU_SIZE_MIN ) )
    15f2:	88 81       	ld	r24, Y
    15f4:	99 81       	ldd	r25, Y+1	; 0x01
    15f6:	05 97       	sbiw	r24, 0x05	; 5
    15f8:	09 f0       	breq	.+2      	; 0x15fc <eMBFuncReadDiscreteInputs+0x16>
    15fa:	46 c0       	rjmp	.+140    	; 0x1688 <eMBFuncReadDiscreteInputs+0xa2>
    {
        usRegAddress = ( USHORT )( pucFrame[MB_PDU_FUNC_READ_ADDR_OFF] << 8 );
    15fc:	01 81       	ldd	r16, Z+1	; 0x01
        usRegAddress |= ( USHORT )( pucFrame[MB_PDU_FUNC_READ_ADDR_OFF + 1] );
    15fe:	df 01       	movw	r26, r30
    1600:	12 96       	adiw	r26, 0x02	; 2
    1602:	32 81       	ldd	r19, Z+2	; 0x02
        usRegAddress++;

        usDiscreteCnt = ( USHORT )( pucFrame[MB_PDU_FUNC_READ_DISCCNT_OFF] << 8 );
    1604:	93 81       	ldd	r25, Z+3	; 0x03
    1606:	80 e0       	ldi	r24, 0x00	; 0
        usDiscreteCnt |= ( USHORT )( pucFrame[MB_PDU_FUNC_READ_DISCCNT_OFF + 1] );
    1608:	24 81       	ldd	r18, Z+4	; 0x04
    160a:	42 2f       	mov	r20, r18
    160c:	50 e0       	ldi	r21, 0x00	; 0
    160e:	48 2b       	or	r20, r24
    1610:	59 2b       	or	r21, r25

        /* Check if the number of registers to read is valid. If not
         * return Modbus illegal data value exception. 
         */
        if( ( usDiscreteCnt >= 1 ) &&
    1612:	ca 01       	movw	r24, r20
    1614:	01 97       	sbiw	r24, 0x01	; 1
    1616:	8f 5c       	subi	r24, 0xCF	; 207
    1618:	97 40       	sbci	r25, 0x07	; 7
    161a:	b0 f5       	brcc	.+108    	; 0x1688 <eMBFuncReadDiscreteInputs+0xa2>
            ( usDiscreteCnt < MB_PDU_FUNC_READ_DISCCNT_MAX ) )
        {
            /* Set the current PDU data pointer to the beginning. */
            pucFrameCur = &pucFrame[MB_PDU_FUNC_OFF];
            *usLen = MB_PDU_FUNC_OFF;
    161c:	19 82       	std	Y+1, r1	; 0x01
    161e:	18 82       	st	Y, r1

            /* First byte contains the function code. */
            *pucFrameCur++ = MB_FUNC_READ_DISCRETE_INPUTS;
    1620:	82 e0       	ldi	r24, 0x02	; 2
    1622:	80 83       	st	Z, r24
            *usLen += 1;
    1624:	88 81       	ld	r24, Y
    1626:	99 81       	ldd	r25, Y+1	; 0x01
    1628:	01 96       	adiw	r24, 0x01	; 1
    162a:	99 83       	std	Y+1, r25	; 0x01
    162c:	88 83       	st	Y, r24

            /* Test if the quantity of coils is a multiple of 8. If not last
             * byte is only partially field with unused coils set to zero. */
            if( ( usDiscreteCnt & 0x0007 ) != 0 )
    162e:	ca 01       	movw	r24, r20
    1630:	87 70       	andi	r24, 0x07	; 7
    1632:	90 70       	andi	r25, 0x00	; 0
    1634:	ba 01       	movw	r22, r20
    1636:	23 e0       	ldi	r18, 0x03	; 3
    1638:	76 95       	lsr	r23
    163a:	67 95       	ror	r22
    163c:	2a 95       	dec	r18
    163e:	e1 f7       	brne	.-8      	; 0x1638 <eMBFuncReadDiscreteInputs+0x52>
    1640:	89 2b       	or	r24, r25
    1642:	19 f0       	breq	.+6      	; 0x164a <eMBFuncReadDiscreteInputs+0x64>
            {
                ucNBytes = ( UCHAR ) ( usDiscreteCnt / 8 + 1 );
    1644:	16 2f       	mov	r17, r22
    1646:	1f 5f       	subi	r17, 0xFF	; 255
    1648:	01 c0       	rjmp	.+2      	; 0x164c <eMBFuncReadDiscreteInputs+0x66>
            }
            else
            {
                ucNBytes = ( UCHAR ) ( usDiscreteCnt / 8 );
    164a:	16 2f       	mov	r17, r22
            }
            *pucFrameCur++ = ucNBytes;
    164c:	11 83       	std	Z+1, r17	; 0x01
            *usLen += 1;
    164e:	88 81       	ld	r24, Y
    1650:	99 81       	ldd	r25, Y+1	; 0x01
    1652:	01 96       	adiw	r24, 0x01	; 1
    1654:	99 83       	std	Y+1, r25	; 0x01
    1656:	88 83       	st	Y, r24
    eMBException    eStatus = MB_EX_NONE;
    eMBErrorCode    eRegStatus;

    if( *usLen == ( MB_PDU_FUNC_READ_SIZE + MB_PDU_SIZE_MIN ) )
    {
        usRegAddress = ( USHORT )( pucFrame[MB_PDU_FUNC_READ_ADDR_OFF] << 8 );
    1658:	70 2f       	mov	r23, r16
    165a:	60 e0       	ldi	r22, 0x00	; 0
        usRegAddress |= ( USHORT )( pucFrame[MB_PDU_FUNC_READ_ADDR_OFF + 1] );
    165c:	83 2f       	mov	r24, r19
    165e:	90 e0       	ldi	r25, 0x00	; 0
    1660:	68 2b       	or	r22, r24
    1662:	79 2b       	or	r23, r25
                ucNBytes = ( UCHAR ) ( usDiscreteCnt / 8 );
            }
            *pucFrameCur++ = ucNBytes;
            *usLen += 1;

            eRegStatus =
    1664:	6f 5f       	subi	r22, 0xFF	; 255
    1666:	7f 4f       	sbci	r23, 0xFF	; 255
    1668:	cd 01       	movw	r24, r26
    166a:	0e 94 1b 03 	call	0x636	; 0x636 <eMBRegDiscreteCB>
                eMBRegDiscreteCB( pucFrameCur, usRegAddress, usDiscreteCnt );

            /* If an error occured convert it into a Modbus exception. */
            if( eRegStatus != MB_ENOERR )
    166e:	88 23       	and	r24, r24
    1670:	19 f0       	breq	.+6      	; 0x1678 <eMBFuncReadDiscreteInputs+0x92>
            {
                eStatus = prveMBError2Exception( eRegStatus );
    1672:	0e 94 71 0d 	call	0x1ae2	; 0x1ae2 <prveMBError2Exception>
    1676:	09 c0       	rjmp	.+18     	; 0x168a <eMBFuncReadDiscreteInputs+0xa4>
            else
            {
                /* The response contains the function code, the starting address
                 * and the quantity of registers. We reuse the old values in the 
                 * buffer because they are still valid. */
                *usLen += ucNBytes;;
    1678:	88 81       	ld	r24, Y
    167a:	99 81       	ldd	r25, Y+1	; 0x01
    167c:	81 0f       	add	r24, r17
    167e:	91 1d       	adc	r25, r1
    1680:	99 83       	std	Y+1, r25	; 0x01
    1682:	88 83       	st	Y, r24
    1684:	80 e0       	ldi	r24, 0x00	; 0
    1686:	01 c0       	rjmp	.+2      	; 0x168a <eMBFuncReadDiscreteInputs+0xa4>
    1688:	83 e0       	ldi	r24, 0x03	; 3
        /* Can't be a valid read coil register request because the length
         * is incorrect. */
        eStatus = MB_EX_ILLEGAL_DATA_VALUE;
    }
    return eStatus;
}
    168a:	df 91       	pop	r29
    168c:	cf 91       	pop	r28
    168e:	1f 91       	pop	r17
    1690:	0f 91       	pop	r16
    1692:	08 95       	ret

00001694 <eMBFuncReadWriteMultipleHoldingRegister>:

#if MB_FUNC_READWRITE_HOLDING_ENABLED > 0

eMBException
eMBFuncReadWriteMultipleHoldingRegister( UCHAR * pucFrame, USHORT * usLen )
{
    1694:	8f 92       	push	r8
    1696:	9f 92       	push	r9
    1698:	af 92       	push	r10
    169a:	bf 92       	push	r11
    169c:	cf 92       	push	r12
    169e:	df 92       	push	r13
    16a0:	ef 92       	push	r14
    16a2:	ff 92       	push	r15
    16a4:	0f 93       	push	r16
    16a6:	1f 93       	push	r17
    16a8:	cf 93       	push	r28
    16aa:	df 93       	push	r29
    16ac:	ec 01       	movw	r28, r24
    16ae:	8b 01       	movw	r16, r22
    UCHAR          *pucFrameCur;

    eMBException    eStatus = MB_EX_NONE;
    eMBErrorCode    eRegStatus;

    if( *usLen >= ( MB_PDU_FUNC_READWRITE_SIZE_MIN + MB_PDU_SIZE_MIN ) )
    16b0:	fb 01       	movw	r30, r22
    16b2:	80 81       	ld	r24, Z
    16b4:	91 81       	ldd	r25, Z+1	; 0x01
    16b6:	0a 97       	sbiw	r24, 0x0a	; 10
    16b8:	08 f4       	brcc	.+2      	; 0x16bc <eMBFuncReadWriteMultipleHoldingRegister+0x28>
    16ba:	67 c0       	rjmp	.+206    	; 0x178a <eMBFuncReadWriteMultipleHoldingRegister+0xf6>
    {
        usRegReadAddress = ( USHORT )( pucFrame[MB_PDU_FUNC_READWRITE_READ_ADDR_OFF] << 8U );
    16bc:	89 80       	ldd	r8, Y+1	; 0x01
        usRegReadAddress |= ( USHORT )( pucFrame[MB_PDU_FUNC_READWRITE_READ_ADDR_OFF + 1] );
    16be:	22 e0       	ldi	r18, 0x02	; 2
    16c0:	a2 2e       	mov	r10, r18
    16c2:	b1 2c       	mov	r11, r1
    16c4:	ac 0e       	add	r10, r28
    16c6:	bd 1e       	adc	r11, r29
    16c8:	9a 80       	ldd	r9, Y+2	; 0x02
        usRegReadAddress++;

        usRegReadCount = ( USHORT )( pucFrame[MB_PDU_FUNC_READWRITE_READ_REGCNT_OFF] << 8U );
    16ca:	9b 81       	ldd	r25, Y+3	; 0x03
    16cc:	80 e0       	ldi	r24, 0x00	; 0
        usRegReadCount |= ( USHORT )( pucFrame[MB_PDU_FUNC_READWRITE_READ_REGCNT_OFF + 1] );
    16ce:	2c 81       	ldd	r18, Y+4	; 0x04
    16d0:	e2 2e       	mov	r14, r18
    16d2:	ff 24       	eor	r15, r15
    16d4:	e8 2a       	or	r14, r24
    16d6:	f9 2a       	or	r15, r25

        usRegWriteAddress = ( USHORT )( pucFrame[MB_PDU_FUNC_READWRITE_WRITE_ADDR_OFF] << 8U );
    16d8:	ed 81       	ldd	r30, Y+5	; 0x05
        usRegWriteAddress |= ( USHORT )( pucFrame[MB_PDU_FUNC_READWRITE_WRITE_ADDR_OFF + 1] );
    16da:	fe 81       	ldd	r31, Y+6	; 0x06
        usRegWriteAddress++;

        usRegWriteCount = ( USHORT )( pucFrame[MB_PDU_FUNC_READWRITE_WRITE_REGCNT_OFF] << 8U );
    16dc:	6f 81       	ldd	r22, Y+7	; 0x07
        usRegWriteCount |= ( USHORT )( pucFrame[MB_PDU_FUNC_READWRITE_WRITE_REGCNT_OFF + 1] );
    16de:	28 85       	ldd	r18, Y+8	; 0x08

        ucRegWriteByteCount = pucFrame[MB_PDU_FUNC_READWRITE_BYTECNT_OFF];
    16e0:	79 85       	ldd	r23, Y+9	; 0x09

        if( ( usRegReadCount >= 1 ) && ( usRegReadCount <= 0x7D ) &&
    16e2:	c7 01       	movw	r24, r14
    16e4:	01 97       	sbiw	r24, 0x01	; 1
    16e6:	8d 37       	cpi	r24, 0x7D	; 125
    16e8:	91 05       	cpc	r25, r1
    16ea:	08 f0       	brcs	.+2      	; 0x16ee <eMBFuncReadWriteMultipleHoldingRegister+0x5a>
    16ec:	53 c0       	rjmp	.+166    	; 0x1794 <eMBFuncReadWriteMultipleHoldingRegister+0x100>

        usRegWriteAddress = ( USHORT )( pucFrame[MB_PDU_FUNC_READWRITE_WRITE_ADDR_OFF] << 8U );
        usRegWriteAddress |= ( USHORT )( pucFrame[MB_PDU_FUNC_READWRITE_WRITE_ADDR_OFF + 1] );
        usRegWriteAddress++;

        usRegWriteCount = ( USHORT )( pucFrame[MB_PDU_FUNC_READWRITE_WRITE_REGCNT_OFF] << 8U );
    16ee:	96 2f       	mov	r25, r22
    16f0:	80 e0       	ldi	r24, 0x00	; 0
        usRegWriteCount |= ( USHORT )( pucFrame[MB_PDU_FUNC_READWRITE_WRITE_REGCNT_OFF + 1] );
    16f2:	42 2f       	mov	r20, r18
    16f4:	50 e0       	ldi	r21, 0x00	; 0
    16f6:	48 2b       	or	r20, r24
    16f8:	59 2b       	or	r21, r25

        ucRegWriteByteCount = pucFrame[MB_PDU_FUNC_READWRITE_BYTECNT_OFF];

        if( ( usRegReadCount >= 1 ) && ( usRegReadCount <= 0x7D ) &&
    16fa:	41 15       	cp	r20, r1
    16fc:	51 05       	cpc	r21, r1
    16fe:	09 f4       	brne	.+2      	; 0x1702 <eMBFuncReadWriteMultipleHoldingRegister+0x6e>
    1700:	49 c0       	rjmp	.+146    	; 0x1794 <eMBFuncReadWriteMultipleHoldingRegister+0x100>
    1702:	4a 37       	cpi	r20, 0x7A	; 122
    1704:	51 05       	cpc	r21, r1
    1706:	08 f0       	brcs	.+2      	; 0x170a <eMBFuncReadWriteMultipleHoldingRegister+0x76>
    1708:	45 c0       	rjmp	.+138    	; 0x1794 <eMBFuncReadWriteMultipleHoldingRegister+0x100>
    170a:	9a 01       	movw	r18, r20
    170c:	22 0f       	add	r18, r18
    170e:	33 1f       	adc	r19, r19
    1710:	87 2f       	mov	r24, r23
    1712:	90 e0       	ldi	r25, 0x00	; 0
    1714:	28 17       	cp	r18, r24
    1716:	39 07       	cpc	r19, r25
    1718:	e9 f5       	brne	.+122    	; 0x1794 <eMBFuncReadWriteMultipleHoldingRegister+0x100>
        usRegReadAddress++;

        usRegReadCount = ( USHORT )( pucFrame[MB_PDU_FUNC_READWRITE_READ_REGCNT_OFF] << 8U );
        usRegReadCount |= ( USHORT )( pucFrame[MB_PDU_FUNC_READWRITE_READ_REGCNT_OFF + 1] );

        usRegWriteAddress = ( USHORT )( pucFrame[MB_PDU_FUNC_READWRITE_WRITE_ADDR_OFF] << 8U );
    171a:	7e 2f       	mov	r23, r30
    171c:	60 e0       	ldi	r22, 0x00	; 0
        usRegWriteAddress |= ( USHORT )( pucFrame[MB_PDU_FUNC_READWRITE_WRITE_ADDR_OFF + 1] );
    171e:	8f 2f       	mov	r24, r31
    1720:	90 e0       	ldi	r25, 0x00	; 0
    1722:	68 2b       	or	r22, r24
    1724:	79 2b       	or	r23, r25
        if( ( usRegReadCount >= 1 ) && ( usRegReadCount <= 0x7D ) &&
            ( usRegWriteCount >= 1 ) && ( usRegWriteCount <= 0x79 ) &&
            ( ( 2 * usRegWriteCount ) == ucRegWriteByteCount ) )
        {
            /* Make callback to update the register values. */
            eRegStatus = eMBRegHoldingCB( &pucFrame[MB_PDU_FUNC_READWRITE_WRITE_VALUES_OFF],
    1726:	6f 5f       	subi	r22, 0xFF	; 255
    1728:	7f 4f       	sbci	r23, 0xFF	; 255
    172a:	ce 01       	movw	r24, r28
    172c:	0a 96       	adiw	r24, 0x0a	; 10
    172e:	21 e0       	ldi	r18, 0x01	; 1
    1730:	0e 94 9e 01 	call	0x33c	; 0x33c <eMBRegHoldingCB>
                                          usRegWriteAddress, usRegWriteCount, MB_REG_WRITE );

            if( eRegStatus == MB_ENOERR )
    1734:	88 23       	and	r24, r24
    1736:	59 f5       	brne	.+86     	; 0x178e <eMBFuncReadWriteMultipleHoldingRegister+0xfa>
            {
                /* Set the current PDU data pointer to the beginning. */
                pucFrameCur = &pucFrame[MB_PDU_FUNC_OFF];
                *usLen = MB_PDU_FUNC_OFF;
    1738:	f8 01       	movw	r30, r16
    173a:	11 82       	std	Z+1, r1	; 0x01
    173c:	10 82       	st	Z, r1

                /* First byte contains the function code. */
                *pucFrameCur++ = MB_FUNC_READWRITE_MULTIPLE_REGISTERS;
    173e:	87 e1       	ldi	r24, 0x17	; 23
    1740:	88 83       	st	Y, r24
                *usLen += 1;
    1742:	80 81       	ld	r24, Z
    1744:	91 81       	ldd	r25, Z+1	; 0x01
    1746:	01 96       	adiw	r24, 0x01	; 1
    1748:	91 83       	std	Z+1, r25	; 0x01
    174a:	80 83       	st	Z, r24

                /* Second byte in the response contain the number of bytes. */
                *pucFrameCur++ = ( UCHAR ) ( usRegReadCount * 2 );
    174c:	67 01       	movw	r12, r14
    174e:	cc 0c       	add	r12, r12
    1750:	dd 1c       	adc	r13, r13
    1752:	c9 82       	std	Y+1, r12	; 0x01
                *usLen += 1;
    1754:	80 81       	ld	r24, Z
    1756:	91 81       	ldd	r25, Z+1	; 0x01
    1758:	01 96       	adiw	r24, 0x01	; 1
    175a:	91 83       	std	Z+1, r25	; 0x01
    175c:	80 83       	st	Z, r24
    eMBException    eStatus = MB_EX_NONE;
    eMBErrorCode    eRegStatus;

    if( *usLen >= ( MB_PDU_FUNC_READWRITE_SIZE_MIN + MB_PDU_SIZE_MIN ) )
    {
        usRegReadAddress = ( USHORT )( pucFrame[MB_PDU_FUNC_READWRITE_READ_ADDR_OFF] << 8U );
    175e:	78 2d       	mov	r23, r8
    1760:	60 e0       	ldi	r22, 0x00	; 0
        usRegReadAddress |= ( USHORT )( pucFrame[MB_PDU_FUNC_READWRITE_READ_ADDR_OFF + 1] );
    1762:	89 2d       	mov	r24, r9
    1764:	90 e0       	ldi	r25, 0x00	; 0
    1766:	68 2b       	or	r22, r24
    1768:	79 2b       	or	r23, r25
                /* Second byte in the response contain the number of bytes. */
                *pucFrameCur++ = ( UCHAR ) ( usRegReadCount * 2 );
                *usLen += 1;

                /* Make the read callback. */
                eRegStatus =
    176a:	6f 5f       	subi	r22, 0xFF	; 255
    176c:	7f 4f       	sbci	r23, 0xFF	; 255
    176e:	c5 01       	movw	r24, r10
    1770:	a7 01       	movw	r20, r14
    1772:	20 e0       	ldi	r18, 0x00	; 0
    1774:	0e 94 9e 01 	call	0x33c	; 0x33c <eMBRegHoldingCB>
                    eMBRegHoldingCB( pucFrameCur, usRegReadAddress, usRegReadCount, MB_REG_READ );
                if( eRegStatus == MB_ENOERR )
    1778:	88 23       	and	r24, r24
    177a:	49 f4       	brne	.+18     	; 0x178e <eMBFuncReadWriteMultipleHoldingRegister+0xfa>
                {
                    *usLen += 2 * usRegReadCount;
    177c:	f8 01       	movw	r30, r16
    177e:	80 81       	ld	r24, Z
    1780:	91 81       	ldd	r25, Z+1	; 0x01
    1782:	8c 0d       	add	r24, r12
    1784:	9d 1d       	adc	r25, r13
    1786:	91 83       	std	Z+1, r25	; 0x01
    1788:	80 83       	st	Z, r24
    178a:	80 e0       	ldi	r24, 0x00	; 0
    178c:	04 c0       	rjmp	.+8      	; 0x1796 <eMBFuncReadWriteMultipleHoldingRegister+0x102>
                }
            }
            if( eRegStatus != MB_ENOERR )
            {
                eStatus = prveMBError2Exception( eRegStatus );
    178e:	0e 94 71 0d 	call	0x1ae2	; 0x1ae2 <prveMBError2Exception>
    1792:	01 c0       	rjmp	.+2      	; 0x1796 <eMBFuncReadWriteMultipleHoldingRegister+0x102>
    1794:	83 e0       	ldi	r24, 0x03	; 3
        {
            eStatus = MB_EX_ILLEGAL_DATA_VALUE;
        }
    }
    return eStatus;
}
    1796:	df 91       	pop	r29
    1798:	cf 91       	pop	r28
    179a:	1f 91       	pop	r17
    179c:	0f 91       	pop	r16
    179e:	ff 90       	pop	r15
    17a0:	ef 90       	pop	r14
    17a2:	df 90       	pop	r13
    17a4:	cf 90       	pop	r12
    17a6:	bf 90       	pop	r11
    17a8:	af 90       	pop	r10
    17aa:	9f 90       	pop	r9
    17ac:	8f 90       	pop	r8
    17ae:	08 95       	ret

000017b0 <eMBFuncReadHoldingRegister>:

#if MB_FUNC_READ_HOLDING_ENABLED > 0

eMBException
eMBFuncReadHoldingRegister( UCHAR * pucFrame, USHORT * usLen )
{
    17b0:	0f 93       	push	r16
    17b2:	1f 93       	push	r17
    17b4:	cf 93       	push	r28
    17b6:	df 93       	push	r29
    17b8:	fc 01       	movw	r30, r24
    17ba:	eb 01       	movw	r28, r22
    UCHAR          *pucFrameCur;

    eMBException    eStatus = MB_EX_NONE;
    eMBErrorCode    eRegStatus;

    if( *usLen == ( MB_PDU_FUNC_READ_SIZE + MB_PDU_SIZE_MIN ) )
    17bc:	88 81       	ld	r24, Y
    17be:	99 81       	ldd	r25, Y+1	; 0x01
    17c0:	05 97       	sbiw	r24, 0x05	; 5
    17c2:	c1 f5       	brne	.+112    	; 0x1834 <eMBFuncReadHoldingRegister+0x84>
    {
        usRegAddress = ( USHORT )( pucFrame[MB_PDU_FUNC_READ_ADDR_OFF] << 8 );
    17c4:	b1 81       	ldd	r27, Z+1	; 0x01
        usRegAddress |= ( USHORT )( pucFrame[MB_PDU_FUNC_READ_ADDR_OFF + 1] );
    17c6:	9f 01       	movw	r18, r30
    17c8:	2e 5f       	subi	r18, 0xFE	; 254
    17ca:	3f 4f       	sbci	r19, 0xFF	; 255
    17cc:	a2 81       	ldd	r26, Z+2	; 0x02
        usRegAddress++;

        usRegCount = ( USHORT )( pucFrame[MB_PDU_FUNC_READ_REGCNT_OFF] << 8 );
        usRegCount = ( USHORT )( pucFrame[MB_PDU_FUNC_READ_REGCNT_OFF + 1] );
    17ce:	84 81       	ldd	r24, Z+4	; 0x04
    17d0:	48 2f       	mov	r20, r24
    17d2:	50 e0       	ldi	r21, 0x00	; 0

        /* Check if the number of registers to read is valid. If not
         * return Modbus illegal data value exception. 
         */
        if( ( usRegCount >= 1 ) && ( usRegCount <= MB_PDU_FUNC_READ_REGCNT_MAX ) )
    17d4:	ca 01       	movw	r24, r20
    17d6:	01 97       	sbiw	r24, 0x01	; 1
    17d8:	8d 37       	cpi	r24, 0x7D	; 125
    17da:	91 05       	cpc	r25, r1
    17dc:	58 f5       	brcc	.+86     	; 0x1834 <eMBFuncReadHoldingRegister+0x84>
        {
            /* Set the current PDU data pointer to the beginning. */
            pucFrameCur = &pucFrame[MB_PDU_FUNC_OFF];
            *usLen = MB_PDU_FUNC_OFF;
    17de:	19 82       	std	Y+1, r1	; 0x01
    17e0:	18 82       	st	Y, r1

            /* First byte contains the function code. */
            *pucFrameCur++ = MB_FUNC_READ_HOLDING_REGISTER;
    17e2:	83 e0       	ldi	r24, 0x03	; 3
    17e4:	80 83       	st	Z, r24
            *usLen += 1;
    17e6:	88 81       	ld	r24, Y
    17e8:	99 81       	ldd	r25, Y+1	; 0x01
    17ea:	01 96       	adiw	r24, 0x01	; 1
    17ec:	99 83       	std	Y+1, r25	; 0x01
    17ee:	88 83       	st	Y, r24

            /* Second byte in the response contain the number of bytes. */
            *pucFrameCur++ = ( UCHAR ) ( usRegCount * 2 );
    17f0:	8a 01       	movw	r16, r20
    17f2:	00 0f       	add	r16, r16
    17f4:	11 1f       	adc	r17, r17
    17f6:	01 83       	std	Z+1, r16	; 0x01
            *usLen += 1;
    17f8:	88 81       	ld	r24, Y
    17fa:	99 81       	ldd	r25, Y+1	; 0x01
    17fc:	01 96       	adiw	r24, 0x01	; 1
    17fe:	99 83       	std	Y+1, r25	; 0x01
    1800:	88 83       	st	Y, r24
    eMBException    eStatus = MB_EX_NONE;
    eMBErrorCode    eRegStatus;

    if( *usLen == ( MB_PDU_FUNC_READ_SIZE + MB_PDU_SIZE_MIN ) )
    {
        usRegAddress = ( USHORT )( pucFrame[MB_PDU_FUNC_READ_ADDR_OFF] << 8 );
    1802:	7b 2f       	mov	r23, r27
    1804:	60 e0       	ldi	r22, 0x00	; 0
        usRegAddress |= ( USHORT )( pucFrame[MB_PDU_FUNC_READ_ADDR_OFF + 1] );
    1806:	8a 2f       	mov	r24, r26
    1808:	90 e0       	ldi	r25, 0x00	; 0
    180a:	68 2b       	or	r22, r24
    180c:	79 2b       	or	r23, r25
            /* Second byte in the response contain the number of bytes. */
            *pucFrameCur++ = ( UCHAR ) ( usRegCount * 2 );
            *usLen += 1;

            /* Make callback to fill the buffer. */
            eRegStatus = eMBRegHoldingCB( pucFrameCur, usRegAddress, usRegCount, MB_REG_READ );
    180e:	6f 5f       	subi	r22, 0xFF	; 255
    1810:	7f 4f       	sbci	r23, 0xFF	; 255
    1812:	c9 01       	movw	r24, r18
    1814:	20 e0       	ldi	r18, 0x00	; 0
    1816:	0e 94 9e 01 	call	0x33c	; 0x33c <eMBRegHoldingCB>
            /* If an error occured convert it into a Modbus exception. */
            if( eRegStatus != MB_ENOERR )
    181a:	88 23       	and	r24, r24
    181c:	19 f0       	breq	.+6      	; 0x1824 <eMBFuncReadHoldingRegister+0x74>
            {
                eStatus = prveMBError2Exception( eRegStatus );
    181e:	0e 94 71 0d 	call	0x1ae2	; 0x1ae2 <prveMBError2Exception>
    1822:	09 c0       	rjmp	.+18     	; 0x1836 <eMBFuncReadHoldingRegister+0x86>
            }
            else
            {
                *usLen += usRegCount * 2;
    1824:	88 81       	ld	r24, Y
    1826:	99 81       	ldd	r25, Y+1	; 0x01
    1828:	80 0f       	add	r24, r16
    182a:	91 1f       	adc	r25, r17
    182c:	99 83       	std	Y+1, r25	; 0x01
    182e:	88 83       	st	Y, r24
    1830:	80 e0       	ldi	r24, 0x00	; 0
    1832:	01 c0       	rjmp	.+2      	; 0x1836 <eMBFuncReadHoldingRegister+0x86>
    1834:	83 e0       	ldi	r24, 0x03	; 3
    {
        /* Can't be a valid request because the length is incorrect. */
        eStatus = MB_EX_ILLEGAL_DATA_VALUE;
    }
    return eStatus;
}
    1836:	df 91       	pop	r29
    1838:	cf 91       	pop	r28
    183a:	1f 91       	pop	r17
    183c:	0f 91       	pop	r16
    183e:	08 95       	ret

00001840 <eMBFuncWriteMultipleHoldingRegister>:
#endif

#if MB_FUNC_WRITE_MULTIPLE_HOLDING_ENABLED > 0
eMBException
eMBFuncWriteMultipleHoldingRegister( UCHAR * pucFrame, USHORT * usLen )
{
    1840:	cf 93       	push	r28
    1842:	df 93       	push	r29
    1844:	fc 01       	movw	r30, r24
    1846:	eb 01       	movw	r28, r22
    UCHAR           ucRegByteCount;

    eMBException    eStatus = MB_EX_NONE;
    eMBErrorCode    eRegStatus;

    if( *usLen >= ( MB_PDU_FUNC_WRITE_MUL_SIZE_MIN + MB_PDU_SIZE_MIN ) )
    1848:	88 81       	ld	r24, Y
    184a:	99 81       	ldd	r25, Y+1	; 0x01
    184c:	06 97       	sbiw	r24, 0x06	; 6
    184e:	60 f1       	brcs	.+88     	; 0x18a8 <eMBFuncWriteMultipleHoldingRegister+0x68>
    {
        usRegAddress = ( USHORT )( pucFrame[MB_PDU_FUNC_WRITE_MUL_ADDR_OFF] << 8 );
    1850:	31 81       	ldd	r19, Z+1	; 0x01
        usRegAddress |= ( USHORT )( pucFrame[MB_PDU_FUNC_WRITE_MUL_ADDR_OFF + 1] );
    1852:	a2 81       	ldd	r26, Z+2	; 0x02
        usRegAddress++;

        usRegCount = ( USHORT )( pucFrame[MB_PDU_FUNC_WRITE_MUL_REGCNT_OFF] << 8 );
    1854:	93 81       	ldd	r25, Z+3	; 0x03
    1856:	80 e0       	ldi	r24, 0x00	; 0
        usRegCount |= ( USHORT )( pucFrame[MB_PDU_FUNC_WRITE_MUL_REGCNT_OFF + 1] );
    1858:	24 81       	ldd	r18, Z+4	; 0x04
    185a:	42 2f       	mov	r20, r18
    185c:	50 e0       	ldi	r21, 0x00	; 0
    185e:	48 2b       	or	r20, r24
    1860:	59 2b       	or	r21, r25

        ucRegByteCount = pucFrame[MB_PDU_FUNC_WRITE_MUL_BYTECNT_OFF];
    1862:	25 81       	ldd	r18, Z+5	; 0x05

        if( ( usRegCount >= 1 ) &&
    1864:	ca 01       	movw	r24, r20
    1866:	01 97       	sbiw	r24, 0x01	; 1
    1868:	88 37       	cpi	r24, 0x78	; 120
    186a:	91 05       	cpc	r25, r1
    186c:	e8 f4       	brcc	.+58     	; 0x18a8 <eMBFuncWriteMultipleHoldingRegister+0x68>
    186e:	ca 01       	movw	r24, r20
    1870:	88 0f       	add	r24, r24
    1872:	99 1f       	adc	r25, r25
    1874:	28 17       	cp	r18, r24
    1876:	c1 f4       	brne	.+48     	; 0x18a8 <eMBFuncWriteMultipleHoldingRegister+0x68>
    eMBException    eStatus = MB_EX_NONE;
    eMBErrorCode    eRegStatus;

    if( *usLen >= ( MB_PDU_FUNC_WRITE_MUL_SIZE_MIN + MB_PDU_SIZE_MIN ) )
    {
        usRegAddress = ( USHORT )( pucFrame[MB_PDU_FUNC_WRITE_MUL_ADDR_OFF] << 8 );
    1878:	73 2f       	mov	r23, r19
    187a:	60 e0       	ldi	r22, 0x00	; 0
        usRegAddress |= ( USHORT )( pucFrame[MB_PDU_FUNC_WRITE_MUL_ADDR_OFF + 1] );
    187c:	8a 2f       	mov	r24, r26
    187e:	90 e0       	ldi	r25, 0x00	; 0
    1880:	68 2b       	or	r22, r24
    1882:	79 2b       	or	r23, r25
        if( ( usRegCount >= 1 ) &&
            ( usRegCount <= MB_PDU_FUNC_WRITE_MUL_REGCNT_MAX ) &&
            ( ucRegByteCount == ( UCHAR ) ( 2 * usRegCount ) ) )
        {
            /* Make callback to update the register values. */
            eRegStatus =
    1884:	6f 5f       	subi	r22, 0xFF	; 255
    1886:	7f 4f       	sbci	r23, 0xFF	; 255
    1888:	cf 01       	movw	r24, r30
    188a:	06 96       	adiw	r24, 0x06	; 6
    188c:	21 e0       	ldi	r18, 0x01	; 1
    188e:	0e 94 9e 01 	call	0x33c	; 0x33c <eMBRegHoldingCB>
                eMBRegHoldingCB( &pucFrame[MB_PDU_FUNC_WRITE_MUL_VALUES_OFF],
                                 usRegAddress, usRegCount, MB_REG_WRITE );

            /* If an error occured convert it into a Modbus exception. */
            if( eRegStatus != MB_ENOERR )
    1892:	88 23       	and	r24, r24
    1894:	19 f0       	breq	.+6      	; 0x189c <eMBFuncWriteMultipleHoldingRegister+0x5c>
            {
                eStatus = prveMBError2Exception( eRegStatus );
    1896:	0e 94 71 0d 	call	0x1ae2	; 0x1ae2 <prveMBError2Exception>
    189a:	07 c0       	rjmp	.+14     	; 0x18aa <eMBFuncWriteMultipleHoldingRegister+0x6a>
            {
                /* The response contains the function code, the starting
                 * address and the quantity of registers. We reuse the
                 * old values in the buffer because they are still valid.
                 */
                *usLen = MB_PDU_FUNC_WRITE_MUL_BYTECNT_OFF;
    189c:	85 e0       	ldi	r24, 0x05	; 5
    189e:	90 e0       	ldi	r25, 0x00	; 0
    18a0:	99 83       	std	Y+1, r25	; 0x01
    18a2:	88 83       	st	Y, r24
    18a4:	80 e0       	ldi	r24, 0x00	; 0
    18a6:	01 c0       	rjmp	.+2      	; 0x18aa <eMBFuncWriteMultipleHoldingRegister+0x6a>
    18a8:	83 e0       	ldi	r24, 0x03	; 3
    {
        /* Can't be a valid request because the length is incorrect. */
        eStatus = MB_EX_ILLEGAL_DATA_VALUE;
    }
    return eStatus;
}
    18aa:	df 91       	pop	r29
    18ac:	cf 91       	pop	r28
    18ae:	08 95       	ret

000018b0 <eMBFuncWriteHoldingRegister>:

#if MB_FUNC_WRITE_HOLDING_ENABLED > 0

eMBException
eMBFuncWriteHoldingRegister( UCHAR * pucFrame, USHORT * usLen )
{
    18b0:	dc 01       	movw	r26, r24
    18b2:	fb 01       	movw	r30, r22
    USHORT          usRegAddress;
    eMBException    eStatus = MB_EX_NONE;
    eMBErrorCode    eRegStatus;

    if( *usLen == ( MB_PDU_FUNC_WRITE_SIZE + MB_PDU_SIZE_MIN ) )
    18b4:	80 81       	ld	r24, Z
    18b6:	91 81       	ldd	r25, Z+1	; 0x01
    18b8:	05 97       	sbiw	r24, 0x05	; 5
    18ba:	11 f0       	breq	.+4      	; 0x18c0 <eMBFuncWriteHoldingRegister+0x10>
    18bc:	83 e0       	ldi	r24, 0x03	; 3
    18be:	08 95       	ret
    {
        usRegAddress = ( USHORT )( pucFrame[MB_PDU_FUNC_WRITE_ADDR_OFF] << 8 );
    18c0:	11 96       	adiw	r26, 0x01	; 1
    18c2:	7c 91       	ld	r23, X
    18c4:	11 97       	sbiw	r26, 0x01	; 1
    18c6:	60 e0       	ldi	r22, 0x00	; 0
        usRegAddress |= ( USHORT )( pucFrame[MB_PDU_FUNC_WRITE_ADDR_OFF + 1] );
    18c8:	12 96       	adiw	r26, 0x02	; 2
    18ca:	8c 91       	ld	r24, X
    18cc:	12 97       	sbiw	r26, 0x02	; 2
    18ce:	90 e0       	ldi	r25, 0x00	; 0
    18d0:	68 2b       	or	r22, r24
    18d2:	79 2b       	or	r23, r25
        usRegAddress++;

        /* Make callback to update the value. */
        eRegStatus = eMBRegHoldingCB( &pucFrame[MB_PDU_FUNC_WRITE_VALUE_OFF],
    18d4:	6f 5f       	subi	r22, 0xFF	; 255
    18d6:	7f 4f       	sbci	r23, 0xFF	; 255
    18d8:	cd 01       	movw	r24, r26
    18da:	03 96       	adiw	r24, 0x03	; 3
    18dc:	41 e0       	ldi	r20, 0x01	; 1
    18de:	50 e0       	ldi	r21, 0x00	; 0
    18e0:	21 e0       	ldi	r18, 0x01	; 1
    18e2:	0e 94 9e 01 	call	0x33c	; 0x33c <eMBRegHoldingCB>
                                      usRegAddress, 1, MB_REG_WRITE );

        /* If an error occured convert it into a Modbus exception. */
        if( eRegStatus != MB_ENOERR )
    18e6:	88 23       	and	r24, r24
    18e8:	11 f0       	breq	.+4      	; 0x18ee <eMBFuncWriteHoldingRegister+0x3e>
        {
            eStatus = prveMBError2Exception( eRegStatus );
    18ea:	0e 94 71 0d 	call	0x1ae2	; 0x1ae2 <prveMBError2Exception>
    {
        /* Can't be a valid request because the length is incorrect. */
        eStatus = MB_EX_ILLEGAL_DATA_VALUE;
    }
    return eStatus;
}
    18ee:	08 95       	ret

000018f0 <eMBFuncReadInputRegister>:
/* ----------------------- Start implementation -----------------------------*/
#if MB_FUNC_READ_INPUT_ENABLED > 0

eMBException
eMBFuncReadInputRegister( UCHAR * pucFrame, USHORT * usLen )
{
    18f0:	ff 92       	push	r15
    18f2:	0f 93       	push	r16
    18f4:	1f 93       	push	r17
    18f6:	cf 93       	push	r28
    18f8:	df 93       	push	r29
    18fa:	fc 01       	movw	r30, r24
    18fc:	eb 01       	movw	r28, r22
    UCHAR          *pucFrameCur;

    eMBException    eStatus = MB_EX_NONE;
    eMBErrorCode    eRegStatus;

    if( *usLen == ( MB_PDU_FUNC_READ_SIZE + MB_PDU_SIZE_MIN ) )
    18fe:	88 81       	ld	r24, Y
    1900:	99 81       	ldd	r25, Y+1	; 0x01
    1902:	05 97       	sbiw	r24, 0x05	; 5
    1904:	d1 f5       	brne	.+116    	; 0x197a <eMBFuncReadInputRegister+0x8a>
    {
        usRegAddress = ( USHORT )( pucFrame[MB_PDU_FUNC_READ_ADDR_OFF] << 8 );
    1906:	f1 80       	ldd	r15, Z+1	; 0x01
        usRegAddress |= ( USHORT )( pucFrame[MB_PDU_FUNC_READ_ADDR_OFF + 1] );
    1908:	df 01       	movw	r26, r30
    190a:	12 96       	adiw	r26, 0x02	; 2
    190c:	32 81       	ldd	r19, Z+2	; 0x02
        usRegAddress++;

        usRegCount = ( USHORT )( pucFrame[MB_PDU_FUNC_READ_REGCNT_OFF] << 8 );
    190e:	93 81       	ldd	r25, Z+3	; 0x03
    1910:	80 e0       	ldi	r24, 0x00	; 0
        usRegCount |= ( USHORT )( pucFrame[MB_PDU_FUNC_READ_REGCNT_OFF + 1] );
    1912:	24 81       	ldd	r18, Z+4	; 0x04
    1914:	42 2f       	mov	r20, r18
    1916:	50 e0       	ldi	r21, 0x00	; 0
    1918:	48 2b       	or	r20, r24
    191a:	59 2b       	or	r21, r25

        /* Check if the number of registers to read is valid. If not
         * return Modbus illegal data value exception. 
         */
        if( ( usRegCount >= 1 )
    191c:	ca 01       	movw	r24, r20
    191e:	01 97       	sbiw	r24, 0x01	; 1
    1920:	8c 37       	cpi	r24, 0x7C	; 124
    1922:	91 05       	cpc	r25, r1
    1924:	50 f5       	brcc	.+84     	; 0x197a <eMBFuncReadInputRegister+0x8a>
            && ( usRegCount < MB_PDU_FUNC_READ_REGCNT_MAX ) )
        {
            /* Set the current PDU data pointer to the beginning. */
            pucFrameCur = &pucFrame[MB_PDU_FUNC_OFF];
            *usLen = MB_PDU_FUNC_OFF;
    1926:	19 82       	std	Y+1, r1	; 0x01
    1928:	18 82       	st	Y, r1

            /* First byte contains the function code. */
            *pucFrameCur++ = MB_FUNC_READ_INPUT_REGISTER;
    192a:	84 e0       	ldi	r24, 0x04	; 4
    192c:	80 83       	st	Z, r24
            *usLen += 1;
    192e:	88 81       	ld	r24, Y
    1930:	99 81       	ldd	r25, Y+1	; 0x01
    1932:	01 96       	adiw	r24, 0x01	; 1
    1934:	99 83       	std	Y+1, r25	; 0x01
    1936:	88 83       	st	Y, r24

            /* Second byte in the response contain the number of bytes. */
            *pucFrameCur++ = ( UCHAR )( usRegCount * 2 );
    1938:	8a 01       	movw	r16, r20
    193a:	00 0f       	add	r16, r16
    193c:	11 1f       	adc	r17, r17
    193e:	01 83       	std	Z+1, r16	; 0x01
            *usLen += 1;
    1940:	88 81       	ld	r24, Y
    1942:	99 81       	ldd	r25, Y+1	; 0x01
    1944:	01 96       	adiw	r24, 0x01	; 1
    1946:	99 83       	std	Y+1, r25	; 0x01
    1948:	88 83       	st	Y, r24
    eMBException    eStatus = MB_EX_NONE;
    eMBErrorCode    eRegStatus;

    if( *usLen == ( MB_PDU_FUNC_READ_SIZE + MB_PDU_SIZE_MIN ) )
    {
        usRegAddress = ( USHORT )( pucFrame[MB_PDU_FUNC_READ_ADDR_OFF] << 8 );
    194a:	7f 2d       	mov	r23, r15
    194c:	60 e0       	ldi	r22, 0x00	; 0
        usRegAddress |= ( USHORT )( pucFrame[MB_PDU_FUNC_READ_ADDR_OFF + 1] );
    194e:	83 2f       	mov	r24, r19
    1950:	90 e0       	ldi	r25, 0x00	; 0
    1952:	68 2b       	or	r22, r24
    1954:	79 2b       	or	r23, r25

            /* Second byte in the response contain the number of bytes. */
            *pucFrameCur++ = ( UCHAR )( usRegCount * 2 );
            *usLen += 1;

            eRegStatus =
    1956:	6f 5f       	subi	r22, 0xFF	; 255
    1958:	7f 4f       	sbci	r23, 0xFF	; 255
    195a:	cd 01       	movw	r24, r26
    195c:	0e 94 70 01 	call	0x2e0	; 0x2e0 <eMBRegInputCB>
                eMBRegInputCB( pucFrameCur, usRegAddress, usRegCount );

            /* If an error occured convert it into a Modbus exception. */
            if( eRegStatus != MB_ENOERR )
    1960:	88 23       	and	r24, r24
    1962:	19 f0       	breq	.+6      	; 0x196a <eMBFuncReadInputRegister+0x7a>
            {
                eStatus = prveMBError2Exception( eRegStatus );
    1964:	0e 94 71 0d 	call	0x1ae2	; 0x1ae2 <prveMBError2Exception>
    1968:	09 c0       	rjmp	.+18     	; 0x197c <eMBFuncReadInputRegister+0x8c>
            }
            else
            {
                *usLen += usRegCount * 2;
    196a:	88 81       	ld	r24, Y
    196c:	99 81       	ldd	r25, Y+1	; 0x01
    196e:	80 0f       	add	r24, r16
    1970:	91 1f       	adc	r25, r17
    1972:	99 83       	std	Y+1, r25	; 0x01
    1974:	88 83       	st	Y, r24
    1976:	80 e0       	ldi	r24, 0x00	; 0
    1978:	01 c0       	rjmp	.+2      	; 0x197c <eMBFuncReadInputRegister+0x8c>
    197a:	83 e0       	ldi	r24, 0x03	; 3
        /* Can't be a valid read input register request because the length
         * is incorrect. */
        eStatus = MB_EX_ILLEGAL_DATA_VALUE;
    }
    return eStatus;
}
    197c:	df 91       	pop	r29
    197e:	cf 91       	pop	r28
    1980:	1f 91       	pop	r17
    1982:	0f 91       	pop	r16
    1984:	ff 90       	pop	r15
    1986:	08 95       	ret

00001988 <eMBFuncReportSlaveID>:
    return eStatus;
}

eMBException
eMBFuncReportSlaveID( UCHAR * pucFrame, USHORT * usLen )
{
    1988:	0f 93       	push	r16
    198a:	1f 93       	push	r17
    198c:	8b 01       	movw	r16, r22
    memcpy( &pucFrame[MB_PDU_DATA_OFF], &ucMBSlaveID[0], ( size_t )usMBSlaveIDLen );
    198e:	9c 01       	movw	r18, r24
    1990:	2f 5f       	subi	r18, 0xFF	; 255
    1992:	3f 4f       	sbci	r19, 0xFF	; 255
    1994:	ed e6       	ldi	r30, 0x6D	; 109
    1996:	f3 e0       	ldi	r31, 0x03	; 3
    1998:	40 91 8d 03 	lds	r20, 0x038D
    199c:	50 91 8e 03 	lds	r21, 0x038E
    19a0:	c9 01       	movw	r24, r18
    19a2:	bf 01       	movw	r22, r30
    19a4:	0e 94 9e 18 	call	0x313c	; 0x313c <memcpy>
    *usLen = ( USHORT )( MB_PDU_DATA_OFF + usMBSlaveIDLen );
    19a8:	80 91 8d 03 	lds	r24, 0x038D
    19ac:	90 91 8e 03 	lds	r25, 0x038E
    19b0:	01 96       	adiw	r24, 0x01	; 1
    19b2:	f8 01       	movw	r30, r16
    19b4:	91 83       	std	Z+1, r25	; 0x01
    19b6:	80 83       	st	Z, r24
    return MB_EX_NONE;
}
    19b8:	80 e0       	ldi	r24, 0x00	; 0
    19ba:	1f 91       	pop	r17
    19bc:	0f 91       	pop	r16
    19be:	08 95       	ret

000019c0 <eMBSetSlaveID>:
/* ----------------------- Start implementation -----------------------------*/

eMBErrorCode
eMBSetSlaveID( UCHAR ucSlaveID, BOOL xIsRunning,
               UCHAR const *pucAdditional, USHORT usAdditionalLen )
{
    19c0:	cf 93       	push	r28
    19c2:	df 93       	push	r29
    19c4:	e8 2f       	mov	r30, r24
    19c6:	e9 01       	movw	r28, r18
    eMBErrorCode    eStatus = MB_ENOERR;

    /* the first byte and second byte in the buffer is reserved for
     * the parameter ucSlaveID and the running flag. The rest of
     * the buffer is available for additional data. */
    if( usAdditionalLen + 2 < MB_FUNC_OTHER_REP_SLAVEID_BUF )
    19c8:	c9 01       	movw	r24, r18
    19ca:	02 96       	adiw	r24, 0x02	; 2
    19cc:	80 97       	sbiw	r24, 0x20	; 32
    19ce:	10 f0       	brcs	.+4      	; 0x19d4 <eMBSetSlaveID+0x14>
    19d0:	84 e0       	ldi	r24, 0x04	; 4
    19d2:	23 c0       	rjmp	.+70     	; 0x1a1a <eMBSetSlaveID+0x5a>
    {
        usMBSlaveIDLen = 0;
        ucMBSlaveID[usMBSlaveIDLen++] = ucSlaveID;
    19d4:	e0 93 6d 03 	sts	0x036D, r30
        ucMBSlaveID[usMBSlaveIDLen++] = ( UCHAR )( xIsRunning ? 0xFF : 0x00 );
    19d8:	66 23       	and	r22, r22
    19da:	11 f4       	brne	.+4      	; 0x19e0 <eMBSetSlaveID+0x20>
    19dc:	80 e0       	ldi	r24, 0x00	; 0
    19de:	01 c0       	rjmp	.+2      	; 0x19e2 <eMBSetSlaveID+0x22>
    19e0:	8f ef       	ldi	r24, 0xFF	; 255
    19e2:	80 93 6e 03 	sts	0x036E, r24
    19e6:	82 e0       	ldi	r24, 0x02	; 2
    19e8:	90 e0       	ldi	r25, 0x00	; 0
    19ea:	90 93 8e 03 	sts	0x038E, r25
    19ee:	80 93 8d 03 	sts	0x038D, r24
        if( usAdditionalLen > 0 )
    19f2:	20 97       	sbiw	r28, 0x00	; 0
    19f4:	89 f0       	breq	.+34     	; 0x1a18 <eMBSetSlaveID+0x58>
        {
            memcpy( &ucMBSlaveID[usMBSlaveIDLen], pucAdditional,
    19f6:	2f e6       	ldi	r18, 0x6F	; 111
    19f8:	33 e0       	ldi	r19, 0x03	; 3
    19fa:	c9 01       	movw	r24, r18
    19fc:	ba 01       	movw	r22, r20
    19fe:	ae 01       	movw	r20, r28
    1a00:	0e 94 9e 18 	call	0x313c	; 0x313c <memcpy>
                    ( size_t )usAdditionalLen );
            usMBSlaveIDLen += usAdditionalLen;
    1a04:	80 91 8d 03 	lds	r24, 0x038D
    1a08:	90 91 8e 03 	lds	r25, 0x038E
    1a0c:	8c 0f       	add	r24, r28
    1a0e:	9d 1f       	adc	r25, r29
    1a10:	90 93 8e 03 	sts	0x038E, r25
    1a14:	80 93 8d 03 	sts	0x038D, r24
    1a18:	80 e0       	ldi	r24, 0x00	; 0
    else
    {
        eStatus = MB_ENORES;
    }
    return eStatus;
}
    1a1a:	df 91       	pop	r29
    1a1c:	cf 91       	pop	r28
    1a1e:	08 95       	ret

00001a20 <xMBUtilSetBits>:

/* ----------------------- Start implementation -----------------------------*/
void
xMBUtilSetBits( UCHAR * ucByteBuf, USHORT usBitOffset, UCHAR ucNBits,
                UCHAR ucValue )
{
    1a20:	0f 93       	push	r16
    1a22:	1f 93       	push	r17
    1a24:	cf 93       	push	r28
    1a26:	df 93       	push	r29
    USHORT          usWordBuf;
    USHORT          usMask;
    USHORT          usByteOffset;
    USHORT          usNPreBits;
    USHORT          usValue = ucValue;
    1a28:	30 e0       	ldi	r19, 0x00	; 0

    /* How many bits precede our bits to set. */
    usNPreBits = ( USHORT )( usBitOffset - usByteOffset * BITS_UCHAR );

    /* Move bit field into position over bits to set */
    usValue <<= usNPreBits;
    1a2a:	db 01       	movw	r26, r22
    1a2c:	53 e0       	ldi	r21, 0x03	; 3
    1a2e:	b6 95       	lsr	r27
    1a30:	a7 95       	ror	r26
    1a32:	5a 95       	dec	r21
    1a34:	e1 f7       	brne	.-8      	; 0x1a2e <xMBUtilSetBits+0xe>
    1a36:	67 70       	andi	r22, 0x07	; 7
    1a38:	70 70       	andi	r23, 0x00	; 0

    /* Prepare a mask for setting the new bits. */
    usMask = ( USHORT )( ( 1 << ( USHORT ) ucNBits ) - 1 );
    1a3a:	e1 e0       	ldi	r30, 0x01	; 1
    1a3c:	f0 e0       	ldi	r31, 0x00	; 0
    1a3e:	02 c0       	rjmp	.+4      	; 0x1a44 <xMBUtilSetBits+0x24>
    1a40:	ee 0f       	add	r30, r30
    1a42:	ff 1f       	adc	r31, r31
    1a44:	4a 95       	dec	r20
    1a46:	e2 f7       	brpl	.-8      	; 0x1a40 <xMBUtilSetBits+0x20>
    1a48:	31 97       	sbiw	r30, 0x01	; 1
    usMask <<= usBitOffset - usByteOffset * BITS_UCHAR;

    /* copy bits into temporary storage. */
    usWordBuf = ucByteBuf[usByteOffset];
    1a4a:	8c 01       	movw	r16, r24
    1a4c:	0a 0f       	add	r16, r26
    1a4e:	1b 1f       	adc	r17, r27
    1a50:	e8 01       	movw	r28, r16
    1a52:	48 81       	ld	r20, Y
    1a54:	50 e0       	ldi	r21, 0x00	; 0
    usWordBuf |= ucByteBuf[usByteOffset + 1] << BITS_UCHAR;
    1a56:	11 96       	adiw	r26, 0x01	; 1
    1a58:	a8 0f       	add	r26, r24
    1a5a:	b9 1f       	adc	r27, r25

    /* Zero out bit field bits and then or value bits into them. */
    usWordBuf = ( USHORT )( ( usWordBuf & ( ~usMask ) ) | usValue );
    1a5c:	9c 91       	ld	r25, X
    1a5e:	80 e0       	ldi	r24, 0x00	; 0
    1a60:	48 2b       	or	r20, r24
    1a62:	59 2b       	or	r21, r25
    1a64:	06 2e       	mov	r0, r22
    1a66:	02 c0       	rjmp	.+4      	; 0x1a6c <xMBUtilSetBits+0x4c>
    1a68:	ee 0f       	add	r30, r30
    1a6a:	ff 1f       	adc	r31, r31
    1a6c:	0a 94       	dec	r0
    1a6e:	e2 f7       	brpl	.-8      	; 0x1a68 <xMBUtilSetBits+0x48>
    1a70:	e0 95       	com	r30
    1a72:	f0 95       	com	r31
    1a74:	4e 23       	and	r20, r30
    1a76:	5f 23       	and	r21, r31
    1a78:	02 c0       	rjmp	.+4      	; 0x1a7e <xMBUtilSetBits+0x5e>
    1a7a:	22 0f       	add	r18, r18
    1a7c:	33 1f       	adc	r19, r19
    1a7e:	6a 95       	dec	r22
    1a80:	e2 f7       	brpl	.-8      	; 0x1a7a <xMBUtilSetBits+0x5a>
    1a82:	42 2b       	or	r20, r18
    1a84:	53 2b       	or	r21, r19

    /* move bits back into storage */
    ucByteBuf[usByteOffset] = ( UCHAR )( usWordBuf & 0xFF );
    1a86:	48 83       	st	Y, r20
    ucByteBuf[usByteOffset + 1] = ( UCHAR )( usWordBuf >> BITS_UCHAR );
    1a88:	5c 93       	st	X, r21
}
    1a8a:	df 91       	pop	r29
    1a8c:	cf 91       	pop	r28
    1a8e:	1f 91       	pop	r17
    1a90:	0f 91       	pop	r16
    1a92:	08 95       	ret

00001a94 <xMBUtilGetBits>:
    USHORT          usByteOffset;
    USHORT          usNPreBits;

    /* Calculate byte offset for first byte containing the bit values starting
     * at usBitOffset. */
    usByteOffset = ( USHORT )( ( usBitOffset ) / BITS_UCHAR );
    1a94:	fb 01       	movw	r30, r22
    1a96:	b3 e0       	ldi	r27, 0x03	; 3
    1a98:	f6 95       	lsr	r31
    1a9a:	e7 95       	ror	r30
    1a9c:	ba 95       	dec	r27
    1a9e:	e1 f7       	brne	.-8      	; 0x1a98 <xMBUtilGetBits+0x4>

    /* Prepare a mask for setting the new bits. */
    usMask = ( USHORT )( ( 1 << ( USHORT ) ucNBits ) - 1 );

    /* copy bits into temporary storage. */
    usWordBuf = ucByteBuf[usByteOffset];
    1aa0:	dc 01       	movw	r26, r24
    1aa2:	ae 0f       	add	r26, r30
    1aa4:	bf 1f       	adc	r27, r31
    1aa6:	2c 91       	ld	r18, X
    1aa8:	30 e0       	ldi	r19, 0x00	; 0
    usWordBuf |= ucByteBuf[usByteOffset + 1] << BITS_UCHAR;
    1aaa:	11 96       	adiw	r26, 0x01	; 1
    1aac:	9c 91       	ld	r25, X
    1aae:	80 e0       	ldi	r24, 0x00	; 0
    1ab0:	82 2b       	or	r24, r18
    1ab2:	93 2b       	or	r25, r19

    /* throw away unneeded bits. */
    usWordBuf >>= usNPreBits;
    1ab4:	a3 e0       	ldi	r26, 0x03	; 3
    1ab6:	ee 0f       	add	r30, r30
    1ab8:	ff 1f       	adc	r31, r31
    1aba:	aa 95       	dec	r26
    1abc:	e1 f7       	brne	.-8      	; 0x1ab6 <xMBUtilGetBits+0x22>
    1abe:	6e 1b       	sub	r22, r30
    1ac0:	7f 0b       	sbc	r23, r31
    1ac2:	02 c0       	rjmp	.+4      	; 0x1ac8 <xMBUtilGetBits+0x34>
    1ac4:	96 95       	lsr	r25
    1ac6:	87 95       	ror	r24
    1ac8:	6a 95       	dec	r22
    1aca:	e2 f7       	brpl	.-8      	; 0x1ac4 <xMBUtilGetBits+0x30>
    1acc:	21 e0       	ldi	r18, 0x01	; 1
    1ace:	30 e0       	ldi	r19, 0x00	; 0
    1ad0:	02 c0       	rjmp	.+4      	; 0x1ad6 <xMBUtilGetBits+0x42>
    1ad2:	22 0f       	add	r18, r18
    1ad4:	33 1f       	adc	r19, r19
    1ad6:	4a 95       	dec	r20
    1ad8:	e2 f7       	brpl	.-8      	; 0x1ad2 <xMBUtilGetBits+0x3e>
    1ada:	21 50       	subi	r18, 0x01	; 1
    1adc:	30 40       	sbci	r19, 0x00	; 0

    /* mask away bits above the requested bitfield. */
    usWordBuf &= usMask;

    return ( UCHAR ) usWordBuf;
}
    1ade:	82 23       	and	r24, r18
    1ae0:	08 95       	ret

00001ae2 <prveMBError2Exception>:
eMBException
prveMBError2Exception( eMBErrorCode eErrorCode )
{
    eMBException    eStatus;

    switch ( eErrorCode )
    1ae2:	81 30       	cpi	r24, 0x01	; 1
    1ae4:	29 f0       	breq	.+10     	; 0x1af0 <prveMBError2Exception+0xe>
    1ae6:	81 30       	cpi	r24, 0x01	; 1
    1ae8:	28 f0       	brcs	.+10     	; 0x1af4 <prveMBError2Exception+0x12>
    1aea:	87 30       	cpi	r24, 0x07	; 7
    1aec:	39 f4       	brne	.+14     	; 0x1afc <prveMBError2Exception+0x1a>
    1aee:	04 c0       	rjmp	.+8      	; 0x1af8 <prveMBError2Exception+0x16>
    1af0:	82 e0       	ldi	r24, 0x02	; 2
    1af2:	08 95       	ret
    1af4:	80 e0       	ldi	r24, 0x00	; 0
    1af6:	08 95       	ret
    1af8:	86 e0       	ldi	r24, 0x06	; 6
    1afa:	08 95       	ret
            eStatus = MB_EX_ILLEGAL_DATA_ADDRESS;
            break;

        case MB_ETIMEDOUT:
            eStatus = MB_EX_SLAVE_BUSY;
            break;
    1afc:	84 e0       	ldi	r24, 0x04	; 4
            eStatus = MB_EX_SLAVE_DEVICE_FAILURE;
            break;
    }

    return eStatus;
}
    1afe:	08 95       	ret

00001b00 <usMBCRC16>:
    0x40
};

USHORT
usMBCRC16( UCHAR * pucFrame, USHORT usLen )
{
    1b00:	dc 01       	movw	r26, r24
    1b02:	3f ef       	ldi	r19, 0xFF	; 255
    1b04:	2f ef       	ldi	r18, 0xFF	; 255
    1b06:	11 c0       	rjmp	.+34     	; 0x1b2a <usMBCRC16+0x2a>
    UCHAR           ucCRCLo = 0xFF;
    int             iIndex;

    while( usLen-- )
    {
        iIndex = ucCRCLo ^ *( pucFrame++ );
    1b08:	8d 91       	ld	r24, X+
        ucCRCLo = ucCRCHi ^ pgm_read_byte( &aucCRCHi[iIndex] );
    1b0a:	42 2f       	mov	r20, r18
    1b0c:	48 27       	eor	r20, r24
    1b0e:	50 e0       	ldi	r21, 0x00	; 0
    1b10:	ca 01       	movw	r24, r20
    1b12:	84 57       	subi	r24, 0x74	; 116
    1b14:	9f 4f       	sbci	r25, 0xFF	; 255
    1b16:	fc 01       	movw	r30, r24
    1b18:	24 91       	lpm	r18, Z+
    1b1a:	23 27       	eor	r18, r19
        ucCRCHi = pgm_read_byte( &aucCRCLo[iIndex] );;
    1b1c:	44 57       	subi	r20, 0x74	; 116
    1b1e:	5e 4f       	sbci	r21, 0xFE	; 254
    1b20:	fa 01       	movw	r30, r20
    1b22:	84 91       	lpm	r24, Z+
    1b24:	61 50       	subi	r22, 0x01	; 1
    1b26:	70 40       	sbci	r23, 0x00	; 0
    1b28:	38 2f       	mov	r19, r24
{
    UCHAR           ucCRCHi = 0xFF;
    UCHAR           ucCRCLo = 0xFF;
    int             iIndex;

    while( usLen-- )
    1b2a:	61 15       	cp	r22, r1
    1b2c:	71 05       	cpc	r23, r1
    1b2e:	61 f7       	brne	.-40     	; 0x1b08 <usMBCRC16+0x8>
    1b30:	93 2f       	mov	r25, r19
    1b32:	80 e0       	ldi	r24, 0x00	; 0
    1b34:	30 e0       	ldi	r19, 0x00	; 0
    1b36:	28 2b       	or	r18, r24
    1b38:	39 2b       	or	r19, r25
        iIndex = ucCRCLo ^ *( pucFrame++ );
        ucCRCLo = ucCRCHi ^ pgm_read_byte( &aucCRCHi[iIndex] );
        ucCRCHi = pgm_read_byte( &aucCRCLo[iIndex] );;
    }
    return ucCRCHi << 8 | ucCRCLo;
}
    1b3a:	c9 01       	movw	r24, r18
    1b3c:	08 95       	ret

00001b3e <xMBPortEventInit>:

/* ----------------------- Start implementation -----------------------------*/
BOOL
xMBPortEventInit( void )
{
    xEventInQueue = FALSE;
    1b3e:	10 92 90 03 	sts	0x0390, r1
    return TRUE;
}
    1b42:	81 e0       	ldi	r24, 0x01	; 1
    1b44:	08 95       	ret

00001b46 <xMBPortEventPost>:

BOOL
xMBPortEventPost( eMBEventType eEvent )
{
    xEventInQueue = TRUE;
    1b46:	91 e0       	ldi	r25, 0x01	; 1
    1b48:	90 93 90 03 	sts	0x0390, r25
    eQueuedEvent = eEvent;
    1b4c:	80 93 8f 03 	sts	0x038F, r24
    return TRUE;
}
    1b50:	81 e0       	ldi	r24, 0x01	; 1
    1b52:	08 95       	ret

00001b54 <xMBPortEventGet>:

BOOL
xMBPortEventGet( eMBEventType * eEvent )
{
    1b54:	fc 01       	movw	r30, r24
    BOOL            xEventHappened = FALSE;

    if( xEventInQueue )
    1b56:	80 91 90 03 	lds	r24, 0x0390
    1b5a:	88 23       	and	r24, r24
    1b5c:	31 f0       	breq	.+12     	; 0x1b6a <xMBPortEventGet+0x16>
    {
        *eEvent = eQueuedEvent;
    1b5e:	80 91 8f 03 	lds	r24, 0x038F
    1b62:	80 83       	st	Z, r24
        xEventInQueue = FALSE;
    1b64:	10 92 90 03 	sts	0x0390, r1
    1b68:	81 e0       	ldi	r24, 0x01	; 1
        xEventHappened = TRUE;
    }
    return xEventHappened;
}
    1b6a:	08 95       	ret

00001b6c <vMBPortSerialEnable>:
    ( ( F_OSC ) / ( ( UART_BAUD_RATE ) * 16UL ) - 1 )

void
vMBPortSerialEnable( BOOL xRxEnable, BOOL xTxEnable )
{
	if( xRxEnable ) {
    1b6c:	88 23       	and	r24, r24
    1b6e:	19 f0       	breq	.+6      	; 0x1b76 <vMBPortSerialEnable+0xa>
		UCSRB |= _BV( RXEN ) | _BV( RXCIE );
    1b70:	8a b1       	in	r24, 0x0a	; 10
    1b72:	80 69       	ori	r24, 0x90	; 144
    1b74:	02 c0       	rjmp	.+4      	; 0x1b7a <vMBPortSerialEnable+0xe>
	} else {
		UCSRB &= ~( _BV( RXEN ) | _BV( RXCIE ) );
    1b76:	8a b1       	in	r24, 0x0a	; 10
    1b78:	8f 76       	andi	r24, 0x6F	; 111
    1b7a:	8a b9       	out	0x0a, r24	; 10
	}

	if( xTxEnable ) {
    1b7c:	66 23       	and	r22, r22
    1b7e:	29 f0       	breq	.+10     	; 0x1b8a <vMBPortSerialEnable+0x1e>
		UCSRB |= _BV( TXEN ) | _BV(TXCIE) | _BV( UDRE );
    1b80:	8a b1       	in	r24, 0x0a	; 10
    1b82:	88 66       	ori	r24, 0x68	; 104
    1b84:	8a b9       	out	0x0a, r24	; 10
#ifdef RTS_ENABLE
		RTS_HIGH;
    1b86:	1a 9a       	sbi	0x03, 2	; 3
    1b88:	08 95       	ret
#endif
	} else {
		UCSRB &= ~( _BV( UDRE ) );
    1b8a:	55 98       	cbi	0x0a, 5	; 10
    1b8c:	08 95       	ret

00001b8e <xMBPortSerialInit>:
	}
}

BOOL
xMBPortSerialInit( UCHAR ucPORT, ULONG ulBaudRate, UCHAR ucDataBits, eMBParity eParity )
{
    1b8e:	cf 92       	push	r12
    1b90:	df 92       	push	r13
    1b92:	ef 92       	push	r14
    1b94:	ff 92       	push	r15
    1b96:	0f 93       	push	r16
    1b98:	1f 93       	push	r17
    1b9a:	6a 01       	movw	r12, r20
    1b9c:	7b 01       	movw	r14, r22
    1b9e:	12 2f       	mov	r17, r18
	UCHAR ucUCSRC = 0;
	uint16_t uiBaudRate = 0;

#ifdef RTS_ENABLE
	RTS_INIT;
    1ba0:	12 9a       	sbi	0x02, 2	; 2
    1ba2:	1a 98       	cbi	0x03, 2	; 3
#endif

	// F_CPU: 16.00 MHz
	switch( ulBaudRate ) {
    1ba4:	40 30       	cpi	r20, 0x00	; 0
    1ba6:	86 e9       	ldi	r24, 0x96	; 150
    1ba8:	58 07       	cpc	r21, r24
    1baa:	80 e0       	ldi	r24, 0x00	; 0
    1bac:	68 07       	cpc	r22, r24
    1bae:	80 e0       	ldi	r24, 0x00	; 0
    1bb0:	78 07       	cpc	r23, r24
    1bb2:	09 f4       	brne	.+2      	; 0x1bb6 <xMBPortSerialInit+0x28>
    1bb4:	9f c0       	rjmp	.+318    	; 0x1cf4 <xMBPortSerialInit+0x166>
    1bb6:	41 30       	cpi	r20, 0x01	; 1
    1bb8:	86 e9       	ldi	r24, 0x96	; 150
    1bba:	58 07       	cpc	r21, r24
    1bbc:	80 e0       	ldi	r24, 0x00	; 0
    1bbe:	68 07       	cpc	r22, r24
    1bc0:	80 e0       	ldi	r24, 0x00	; 0
    1bc2:	78 07       	cpc	r23, r24
    1bc4:	08 f0       	brcs	.+2      	; 0x1bc8 <xMBPortSerialInit+0x3a>
    1bc6:	40 c0       	rjmp	.+128    	; 0x1c48 <xMBPortSerialInit+0xba>
    1bc8:	40 38       	cpi	r20, 0x80	; 128
    1bca:	85 e2       	ldi	r24, 0x25	; 37
    1bcc:	58 07       	cpc	r21, r24
    1bce:	80 e0       	ldi	r24, 0x00	; 0
    1bd0:	68 07       	cpc	r22, r24
    1bd2:	80 e0       	ldi	r24, 0x00	; 0
    1bd4:	78 07       	cpc	r23, r24
    1bd6:	09 f4       	brne	.+2      	; 0x1bda <xMBPortSerialInit+0x4c>
    1bd8:	81 c0       	rjmp	.+258    	; 0x1cdc <xMBPortSerialInit+0x14e>
    1bda:	41 38       	cpi	r20, 0x81	; 129
    1bdc:	85 e2       	ldi	r24, 0x25	; 37
    1bde:	58 07       	cpc	r21, r24
    1be0:	80 e0       	ldi	r24, 0x00	; 0
    1be2:	68 07       	cpc	r22, r24
    1be4:	80 e0       	ldi	r24, 0x00	; 0
    1be6:	78 07       	cpc	r23, r24
    1be8:	98 f4       	brcc	.+38     	; 0x1c10 <xMBPortSerialInit+0x82>
    1bea:	40 36       	cpi	r20, 0x60	; 96
    1bec:	89 e0       	ldi	r24, 0x09	; 9
    1bee:	58 07       	cpc	r21, r24
    1bf0:	80 e0       	ldi	r24, 0x00	; 0
    1bf2:	68 07       	cpc	r22, r24
    1bf4:	80 e0       	ldi	r24, 0x00	; 0
    1bf6:	78 07       	cpc	r23, r24
    1bf8:	09 f4       	brne	.+2      	; 0x1bfc <xMBPortSerialInit+0x6e>
    1bfa:	6d c0       	rjmp	.+218    	; 0x1cd6 <xMBPortSerialInit+0x148>
    1bfc:	40 3c       	cpi	r20, 0xC0	; 192
    1bfe:	82 e1       	ldi	r24, 0x12	; 18
    1c00:	58 07       	cpc	r21, r24
    1c02:	80 e0       	ldi	r24, 0x00	; 0
    1c04:	68 07       	cpc	r22, r24
    1c06:	80 e0       	ldi	r24, 0x00	; 0
    1c08:	78 07       	cpc	r23, r24
    1c0a:	09 f0       	breq	.+2      	; 0x1c0e <xMBPortSerialInit+0x80>
    1c0c:	85 c0       	rjmp	.+266    	; 0x1d18 <xMBPortSerialInit+0x18a>
    1c0e:	60 c0       	rjmp	.+192    	; 0x1cd0 <xMBPortSerialInit+0x142>
    1c10:	40 30       	cpi	r20, 0x00	; 0
    1c12:	8b e4       	ldi	r24, 0x4B	; 75
    1c14:	58 07       	cpc	r21, r24
    1c16:	80 e0       	ldi	r24, 0x00	; 0
    1c18:	68 07       	cpc	r22, r24
    1c1a:	80 e0       	ldi	r24, 0x00	; 0
    1c1c:	78 07       	cpc	r23, r24
    1c1e:	09 f4       	brne	.+2      	; 0x1c22 <xMBPortSerialInit+0x94>
    1c20:	63 c0       	rjmp	.+198    	; 0x1ce8 <xMBPortSerialInit+0x15a>
    1c22:	40 38       	cpi	r20, 0x80	; 128
    1c24:	80 e7       	ldi	r24, 0x70	; 112
    1c26:	58 07       	cpc	r21, r24
    1c28:	80 e0       	ldi	r24, 0x00	; 0
    1c2a:	68 07       	cpc	r22, r24
    1c2c:	80 e0       	ldi	r24, 0x00	; 0
    1c2e:	78 07       	cpc	r23, r24
    1c30:	09 f4       	brne	.+2      	; 0x1c34 <xMBPortSerialInit+0xa6>
    1c32:	5d c0       	rjmp	.+186    	; 0x1cee <xMBPortSerialInit+0x160>
    1c34:	40 34       	cpi	r20, 0x40	; 64
    1c36:	88 e3       	ldi	r24, 0x38	; 56
    1c38:	58 07       	cpc	r21, r24
    1c3a:	80 e0       	ldi	r24, 0x00	; 0
    1c3c:	68 07       	cpc	r22, r24
    1c3e:	80 e0       	ldi	r24, 0x00	; 0
    1c40:	78 07       	cpc	r23, r24
    1c42:	09 f0       	breq	.+2      	; 0x1c46 <xMBPortSerialInit+0xb8>
    1c44:	69 c0       	rjmp	.+210    	; 0x1d18 <xMBPortSerialInit+0x18a>
    1c46:	4d c0       	rjmp	.+154    	; 0x1ce2 <xMBPortSerialInit+0x154>
    1c48:	40 30       	cpi	r20, 0x00	; 0
    1c4a:	84 e8       	ldi	r24, 0x84	; 132
    1c4c:	58 07       	cpc	r21, r24
    1c4e:	83 e0       	ldi	r24, 0x03	; 3
    1c50:	68 07       	cpc	r22, r24
    1c52:	80 e0       	ldi	r24, 0x00	; 0
    1c54:	78 07       	cpc	r23, r24
    1c56:	09 f4       	brne	.+2      	; 0x1c5a <xMBPortSerialInit+0xcc>
    1c58:	71 c0       	rjmp	.+226    	; 0x1d3c <xMBPortSerialInit+0x1ae>
    1c5a:	41 30       	cpi	r20, 0x01	; 1
    1c5c:	84 e8       	ldi	r24, 0x84	; 132
    1c5e:	58 07       	cpc	r21, r24
    1c60:	83 e0       	ldi	r24, 0x03	; 3
    1c62:	68 07       	cpc	r22, r24
    1c64:	80 e0       	ldi	r24, 0x00	; 0
    1c66:	78 07       	cpc	r23, r24
    1c68:	d0 f4       	brcc	.+52     	; 0x1c9e <xMBPortSerialInit+0x110>
    1c6a:	40 30       	cpi	r20, 0x00	; 0
    1c6c:	8c e2       	ldi	r24, 0x2C	; 44
    1c6e:	58 07       	cpc	r21, r24
    1c70:	81 e0       	ldi	r24, 0x01	; 1
    1c72:	68 07       	cpc	r22, r24
    1c74:	80 e0       	ldi	r24, 0x00	; 0
    1c76:	78 07       	cpc	r23, r24
    1c78:	09 f4       	brne	.+2      	; 0x1c7c <xMBPortSerialInit+0xee>
    1c7a:	42 c0       	rjmp	.+132    	; 0x1d00 <xMBPortSerialInit+0x172>
    1c7c:	40 30       	cpi	r20, 0x00	; 0
    1c7e:	82 ec       	ldi	r24, 0xC2	; 194
    1c80:	58 07       	cpc	r21, r24
    1c82:	81 e0       	ldi	r24, 0x01	; 1
    1c84:	68 07       	cpc	r22, r24
    1c86:	80 e0       	ldi	r24, 0x00	; 0
    1c88:	78 07       	cpc	r23, r24
    1c8a:	e9 f1       	breq	.+122    	; 0x1d06 <xMBPortSerialInit+0x178>
    1c8c:	40 30       	cpi	r20, 0x00	; 0
    1c8e:	81 ee       	ldi	r24, 0xE1	; 225
    1c90:	58 07       	cpc	r21, r24
    1c92:	80 e0       	ldi	r24, 0x00	; 0
    1c94:	68 07       	cpc	r22, r24
    1c96:	80 e0       	ldi	r24, 0x00	; 0
    1c98:	78 07       	cpc	r23, r24
    1c9a:	f1 f5       	brne	.+124    	; 0x1d18 <xMBPortSerialInit+0x18a>
    1c9c:	2e c0       	rjmp	.+92     	; 0x1cfa <xMBPortSerialInit+0x16c>
    1c9e:	40 32       	cpi	r20, 0x20	; 32
    1ca0:	81 ea       	ldi	r24, 0xA1	; 161
    1ca2:	58 07       	cpc	r21, r24
    1ca4:	87 e0       	ldi	r24, 0x07	; 7
    1ca6:	68 07       	cpc	r22, r24
    1ca8:	80 e0       	ldi	r24, 0x00	; 0
    1caa:	78 07       	cpc	r23, r24
    1cac:	79 f1       	breq	.+94     	; 0x1d0c <xMBPortSerialInit+0x17e>
    1cae:	40 34       	cpi	r20, 0x40	; 64
    1cb0:	82 e4       	ldi	r24, 0x42	; 66
    1cb2:	58 07       	cpc	r21, r24
    1cb4:	8f e0       	ldi	r24, 0x0F	; 15
    1cb6:	68 07       	cpc	r22, r24
    1cb8:	80 e0       	ldi	r24, 0x00	; 0
    1cba:	78 07       	cpc	r23, r24
    1cbc:	51 f1       	breq	.+84     	; 0x1d12 <xMBPortSerialInit+0x184>
    1cbe:	40 39       	cpi	r20, 0x90	; 144
    1cc0:	80 ed       	ldi	r24, 0xD0	; 208
    1cc2:	58 07       	cpc	r21, r24
    1cc4:	83 e0       	ldi	r24, 0x03	; 3
    1cc6:	68 07       	cpc	r22, r24
    1cc8:	80 e0       	ldi	r24, 0x00	; 0
    1cca:	78 07       	cpc	r23, r24
    1ccc:	29 f5       	brne	.+74     	; 0x1d18 <xMBPortSerialInit+0x18a>
    1cce:	36 c0       	rjmp	.+108    	; 0x1d3c <xMBPortSerialInit+0x1ae>
    1cd0:	2f ec       	ldi	r18, 0xCF	; 207
    1cd2:	30 e0       	ldi	r19, 0x00	; 0
    1cd4:	35 c0       	rjmp	.+106    	; 0x1d40 <xMBPortSerialInit+0x1b2>
    1cd6:	20 ea       	ldi	r18, 0xA0	; 160
    1cd8:	31 e0       	ldi	r19, 0x01	; 1
    1cda:	32 c0       	rjmp	.+100    	; 0x1d40 <xMBPortSerialInit+0x1b2>
    1cdc:	27 e6       	ldi	r18, 0x67	; 103
    1cde:	30 e0       	ldi	r19, 0x00	; 0
    1ce0:	2f c0       	rjmp	.+94     	; 0x1d40 <xMBPortSerialInit+0x1b2>
	case 2400: uiBaudRate = 416; break;
	case 4800: uiBaudRate = 207; break;
	case 9600: uiBaudRate = 103; break;
    1ce2:	24 e4       	ldi	r18, 0x44	; 68
    1ce4:	30 e0       	ldi	r19, 0x00	; 0
    1ce6:	2c c0       	rjmp	.+88     	; 0x1d40 <xMBPortSerialInit+0x1b2>
	case 14400: uiBaudRate = 68; break;
    1ce8:	23 e3       	ldi	r18, 0x33	; 51
    1cea:	30 e0       	ldi	r19, 0x00	; 0
    1cec:	29 c0       	rjmp	.+82     	; 0x1d40 <xMBPortSerialInit+0x1b2>
	case 19200: uiBaudRate = 51; break;
    1cee:	22 e2       	ldi	r18, 0x22	; 34
    1cf0:	30 e0       	ldi	r19, 0x00	; 0
    1cf2:	26 c0       	rjmp	.+76     	; 0x1d40 <xMBPortSerialInit+0x1b2>
	case 28800: uiBaudRate = 34; break;
    1cf4:	29 e1       	ldi	r18, 0x19	; 25
    1cf6:	30 e0       	ldi	r19, 0x00	; 0
    1cf8:	23 c0       	rjmp	.+70     	; 0x1d40 <xMBPortSerialInit+0x1b2>
	case 38400: uiBaudRate = 25; break;
    1cfa:	20 e1       	ldi	r18, 0x10	; 16
    1cfc:	30 e0       	ldi	r19, 0x00	; 0
    1cfe:	20 c0       	rjmp	.+64     	; 0x1d40 <xMBPortSerialInit+0x1b2>
	case 57600: uiBaudRate = 16; break;
    1d00:	2c e0       	ldi	r18, 0x0C	; 12
    1d02:	30 e0       	ldi	r19, 0x00	; 0
    1d04:	1d c0       	rjmp	.+58     	; 0x1d40 <xMBPortSerialInit+0x1b2>
	case 76800: uiBaudRate = 12; break;
    1d06:	28 e0       	ldi	r18, 0x08	; 8
    1d08:	30 e0       	ldi	r19, 0x00	; 0
    1d0a:	1a c0       	rjmp	.+52     	; 0x1d40 <xMBPortSerialInit+0x1b2>
	case 115200: uiBaudRate = 8; break;
    1d0c:	21 e0       	ldi	r18, 0x01	; 1
    1d0e:	30 e0       	ldi	r19, 0x00	; 0
    1d10:	17 c0       	rjmp	.+46     	; 0x1d40 <xMBPortSerialInit+0x1b2>
	case 230400: uiBaudRate = 3; break;
	case 250000: uiBaudRate = 3; break;
	case 500000: uiBaudRate = 1; break;
    1d12:	20 e0       	ldi	r18, 0x00	; 0
    1d14:	30 e0       	ldi	r19, 0x00	; 0
    1d16:	14 c0       	rjmp	.+40     	; 0x1d40 <xMBPortSerialInit+0x1b2>
	case 1000000: uiBaudRate = 0; break;
	default: uiBaudRate = UART_BAUD_CALC( ulBaudRate, F_CPU );
    1d18:	84 e0       	ldi	r24, 0x04	; 4
    1d1a:	cc 0c       	add	r12, r12
    1d1c:	dd 1c       	adc	r13, r13
    1d1e:	ee 1c       	adc	r14, r14
    1d20:	ff 1c       	adc	r15, r15
    1d22:	8a 95       	dec	r24
    1d24:	d1 f7       	brne	.-12     	; 0x1d1a <xMBPortSerialInit+0x18c>
    1d26:	60 e0       	ldi	r22, 0x00	; 0
    1d28:	74 e2       	ldi	r23, 0x24	; 36
    1d2a:	84 ef       	ldi	r24, 0xF4	; 244
    1d2c:	90 e0       	ldi	r25, 0x00	; 0
    1d2e:	a7 01       	movw	r20, r14
    1d30:	96 01       	movw	r18, r12
    1d32:	0e 94 7c 18 	call	0x30f8	; 0x30f8 <__udivmodsi4>
    1d36:	21 50       	subi	r18, 0x01	; 1
    1d38:	30 40       	sbci	r19, 0x00	; 0
    1d3a:	02 c0       	rjmp	.+4      	; 0x1d40 <xMBPortSerialInit+0x1b2>
    1d3c:	23 e0       	ldi	r18, 0x03	; 3
    1d3e:	30 e0       	ldi	r19, 0x00	; 0
	}

	UBRRH = uiBaudRate>>8;
    1d40:	30 93 90 00 	sts	0x0090, r19
	UBRRL = uiBaudRate;
    1d44:	29 b9       	out	0x09, r18	; 9

	switch ( eParity ) {
    1d46:	01 30       	cpi	r16, 0x01	; 1
    1d48:	31 f0       	breq	.+12     	; 0x1d56 <xMBPortSerialInit+0x1c8>
    1d4a:	02 30       	cpi	r16, 0x02	; 2
    1d4c:	11 f4       	brne	.+4      	; 0x1d52 <xMBPortSerialInit+0x1c4>
    1d4e:	80 e2       	ldi	r24, 0x20	; 32
    1d50:	03 c0       	rjmp	.+6      	; 0x1d58 <xMBPortSerialInit+0x1ca>
    1d52:	80 e0       	ldi	r24, 0x00	; 0
    1d54:	01 c0       	rjmp	.+2      	; 0x1d58 <xMBPortSerialInit+0x1ca>
    1d56:	80 e3       	ldi	r24, 0x30	; 48
	 break;
	case MB_PAR_NONE:
	 break;
	}

	switch ( ucDataBits ) {
    1d58:	17 30       	cpi	r17, 0x07	; 7
    1d5a:	21 f0       	breq	.+8      	; 0x1d64 <xMBPortSerialInit+0x1d6>
    1d5c:	18 30       	cpi	r17, 0x08	; 8
    1d5e:	19 f4       	brne	.+6      	; 0x1d66 <xMBPortSerialInit+0x1d8>
	case 8:
		ucUCSRC |= _BV( UCSZ_1 ) | _BV( UCSZ_0 );
    1d60:	86 60       	ori	r24, 0x06	; 6
    1d62:	01 c0       	rjmp	.+2      	; 0x1d66 <xMBPortSerialInit+0x1d8>
	 break;
	case 7:
		ucUCSRC |= _BV( UCSZ_1 );
    1d64:	84 60       	ori	r24, 0x04	; 4
#elif defined (__AVR_ATmega16__)
	UCSRC = _BV( URSEL ) | ucUCSRC;
#elif defined (__AVR_ATmega32__)
	UCSRC = _BV( URSEL ) | ucUCSRC;
#elif defined (__AVR_ATmega128__)
	UCSRC = ucUCSRC | _BV(USBS_0);
    1d66:	88 60       	ori	r24, 0x08	; 8
    1d68:	80 93 95 00 	sts	0x0095, r24
#endif

	vMBPortSerialEnable( FALSE, FALSE );
    1d6c:	80 e0       	ldi	r24, 0x00	; 0
    1d6e:	60 e0       	ldi	r22, 0x00	; 0
    1d70:	0e 94 b6 0d 	call	0x1b6c	; 0x1b6c <vMBPortSerialEnable>

	return TRUE;
}
    1d74:	81 e0       	ldi	r24, 0x01	; 1
    1d76:	1f 91       	pop	r17
    1d78:	0f 91       	pop	r16
    1d7a:	ff 90       	pop	r15
    1d7c:	ef 90       	pop	r14
    1d7e:	df 90       	pop	r13
    1d80:	cf 90       	pop	r12
    1d82:	08 95       	ret

00001d84 <xMBPortSerialPutByte>:

BOOL
xMBPortSerialPutByte( CHAR ucByte )
{
#ifdef RTS_ENABLE
	RTS_HIGH;
    1d84:	1a 9a       	sbi	0x03, 2	; 3
#endif
	UDR = ucByte;
    1d86:	8c b9       	out	0x0c, r24	; 12
	return TRUE;
}
    1d88:	81 e0       	ldi	r24, 0x01	; 1
    1d8a:	08 95       	ret

00001d8c <xMBPortSerialGetByte>:

BOOL
xMBPortSerialGetByte( CHAR * pucByte )
{
    1d8c:	fc 01       	movw	r30, r24
	*pucByte = UDR;
    1d8e:	8c b1       	in	r24, 0x0c	; 12
    1d90:	80 83       	st	Z, r24
	return TRUE;
}
    1d92:	81 e0       	ldi	r24, 0x01	; 1
    1d94:	08 95       	ret

00001d96 <__vector_20>:

ISR( SIG_UART_TX )
{
    1d96:	1f 92       	push	r1
    1d98:	0f 92       	push	r0
    1d9a:	0f b6       	in	r0, 0x3f	; 63
    1d9c:	0f 92       	push	r0
    1d9e:	11 24       	eor	r1, r1
#ifdef RTS_ENABLE
	RTS_LOW;
    1da0:	1a 98       	cbi	0x03, 2	; 3
#endif
}
    1da2:	0f 90       	pop	r0
    1da4:	0f be       	out	0x3f, r0	; 63
    1da6:	0f 90       	pop	r0
    1da8:	1f 90       	pop	r1
    1daa:	18 95       	reti

00001dac <__vector_18>:

ISR( SIG_UART_RX )
{
    1dac:	1f 92       	push	r1
    1dae:	0f 92       	push	r0
    1db0:	0f b6       	in	r0, 0x3f	; 63
    1db2:	0f 92       	push	r0
    1db4:	0b b6       	in	r0, 0x3b	; 59
    1db6:	0f 92       	push	r0
    1db8:	11 24       	eor	r1, r1
    1dba:	2f 93       	push	r18
    1dbc:	3f 93       	push	r19
    1dbe:	4f 93       	push	r20
    1dc0:	5f 93       	push	r21
    1dc2:	6f 93       	push	r22
    1dc4:	7f 93       	push	r23
    1dc6:	8f 93       	push	r24
    1dc8:	9f 93       	push	r25
    1dca:	af 93       	push	r26
    1dcc:	bf 93       	push	r27
    1dce:	ef 93       	push	r30
    1dd0:	ff 93       	push	r31
	pxMBFrameCBByteReceived(  );
    1dd2:	e0 91 0f 07 	lds	r30, 0x070F
    1dd6:	f0 91 10 07 	lds	r31, 0x0710
    1dda:	09 95       	icall
}
    1ddc:	ff 91       	pop	r31
    1dde:	ef 91       	pop	r30
    1de0:	bf 91       	pop	r27
    1de2:	af 91       	pop	r26
    1de4:	9f 91       	pop	r25
    1de6:	8f 91       	pop	r24
    1de8:	7f 91       	pop	r23
    1dea:	6f 91       	pop	r22
    1dec:	5f 91       	pop	r21
    1dee:	4f 91       	pop	r20
    1df0:	3f 91       	pop	r19
    1df2:	2f 91       	pop	r18
    1df4:	0f 90       	pop	r0
    1df6:	0b be       	out	0x3b, r0	; 59
    1df8:	0f 90       	pop	r0
    1dfa:	0f be       	out	0x3f, r0	; 63
    1dfc:	0f 90       	pop	r0
    1dfe:	1f 90       	pop	r1
    1e00:	18 95       	reti

00001e02 <__vector_19>:

ISR( SIG_UART_UDRE )
{
    1e02:	1f 92       	push	r1
    1e04:	0f 92       	push	r0
    1e06:	0f b6       	in	r0, 0x3f	; 63
    1e08:	0f 92       	push	r0
    1e0a:	0b b6       	in	r0, 0x3b	; 59
    1e0c:	0f 92       	push	r0
    1e0e:	11 24       	eor	r1, r1
    1e10:	2f 93       	push	r18
    1e12:	3f 93       	push	r19
    1e14:	4f 93       	push	r20
    1e16:	5f 93       	push	r21
    1e18:	6f 93       	push	r22
    1e1a:	7f 93       	push	r23
    1e1c:	8f 93       	push	r24
    1e1e:	9f 93       	push	r25
    1e20:	af 93       	push	r26
    1e22:	bf 93       	push	r27
    1e24:	ef 93       	push	r30
    1e26:	ff 93       	push	r31
	pxMBFrameCBTransmitterEmpty(  );
    1e28:	e0 91 0b 07 	lds	r30, 0x070B
    1e2c:	f0 91 0c 07 	lds	r31, 0x070C
    1e30:	09 95       	icall
}
    1e32:	ff 91       	pop	r31
    1e34:	ef 91       	pop	r30
    1e36:	bf 91       	pop	r27
    1e38:	af 91       	pop	r26
    1e3a:	9f 91       	pop	r25
    1e3c:	8f 91       	pop	r24
    1e3e:	7f 91       	pop	r23
    1e40:	6f 91       	pop	r22
    1e42:	5f 91       	pop	r21
    1e44:	4f 91       	pop	r20
    1e46:	3f 91       	pop	r19
    1e48:	2f 91       	pop	r18
    1e4a:	0f 90       	pop	r0
    1e4c:	0b be       	out	0x3b, r0	; 59
    1e4e:	0f 90       	pop	r0
    1e50:	0f be       	out	0x3f, r0	; 63
    1e52:	0f 90       	pop	r0
    1e54:	1f 90       	pop	r1
    1e56:	18 95       	reti

00001e58 <vMBPortTimersEnable>:
}

inline void
vMBPortTimersEnable(  )
{
    TCNT1 = 0x0000;
    1e58:	1d bc       	out	0x2d, r1	; 45
    1e5a:	1c bc       	out	0x2c, r1	; 44
    if( usTimerOCRADelta > 0 )
    1e5c:	20 91 91 03 	lds	r18, 0x0391
    1e60:	30 91 92 03 	lds	r19, 0x0392
    1e64:	21 15       	cp	r18, r1
    1e66:	31 05       	cpc	r19, r1
    1e68:	29 f0       	breq	.+10     	; 0x1e74 <vMBPortTimersEnable+0x1c>
    {
        TIMSK |= _BV( OCIE1A );
    1e6a:	87 b7       	in	r24, 0x37	; 55
    1e6c:	80 61       	ori	r24, 0x10	; 16
    1e6e:	87 bf       	out	0x37, r24	; 55
        OCR1A = usTimerOCRADelta;
    1e70:	3b bd       	out	0x2b, r19	; 43
    1e72:	2a bd       	out	0x2a, r18	; 42
    }

    TCCR1B |= _BV( CS12 ) | _BV( CS10 );
    1e74:	8e b5       	in	r24, 0x2e	; 46
    1e76:	85 60       	ori	r24, 0x05	; 5
    1e78:	8e bd       	out	0x2e, r24	; 46
}
    1e7a:	08 95       	ret

00001e7c <vMBPortTimersDisable>:

inline void
vMBPortTimersDisable(  )
{
    /* Disable the timer. */
    TCCR1B &= ~( _BV( CS12 ) | _BV( CS10 ) );
    1e7c:	8e b5       	in	r24, 0x2e	; 46
    1e7e:	8a 7f       	andi	r24, 0xFA	; 250
    1e80:	8e bd       	out	0x2e, r24	; 46
    /* Disable the output compare interrupts for channel A/B. */
    TIMSK &= ~( _BV( OCIE1A ) );
    1e82:	87 b7       	in	r24, 0x37	; 55
    1e84:	8f 7e       	andi	r24, 0xEF	; 239
    1e86:	87 bf       	out	0x37, r24	; 55
    /* Clear output compare flags for channel A/B. */
    TIFR |= _BV( OCF1A ) ;
    1e88:	86 b7       	in	r24, 0x36	; 54
    1e8a:	80 61       	ori	r24, 0x10	; 16
    1e8c:	86 bf       	out	0x36, r24	; 54
}
    1e8e:	08 95       	ret

00001e90 <xMBPortTimersInit>:
/* ----------------------- Start implementation -----------------------------*/
BOOL
xMBPortTimersInit( USHORT usTim1Timerout50us )
{
    /* Calculate overflow counter an OCR values for Timer1. */
    usTimerOCRADelta = ( MB_TIMER_TICKS * usTim1Timerout50us ) / ( MB_50US_TICKS );
    1e90:	a0 e0       	ldi	r26, 0x00	; 0
    1e92:	b0 e0       	ldi	r27, 0x00	; 0
    1e94:	bc 01       	movw	r22, r24
    1e96:	cd 01       	movw	r24, r26
    1e98:	29 e0       	ldi	r18, 0x09	; 9
    1e9a:	3d e3       	ldi	r19, 0x3D	; 61
    1e9c:	40 e0       	ldi	r20, 0x00	; 0
    1e9e:	50 e0       	ldi	r21, 0x00	; 0
    1ea0:	0e 94 5d 18 	call	0x30ba	; 0x30ba <__mulsi3>
    1ea4:	20 e2       	ldi	r18, 0x20	; 32
    1ea6:	3e e4       	ldi	r19, 0x4E	; 78
    1ea8:	40 e0       	ldi	r20, 0x00	; 0
    1eaa:	50 e0       	ldi	r21, 0x00	; 0
    1eac:	0e 94 7c 18 	call	0x30f8	; 0x30f8 <__udivmodsi4>
    1eb0:	30 93 92 03 	sts	0x0392, r19
    1eb4:	20 93 91 03 	sts	0x0391, r18

    TCCR1A = 0x00;
    1eb8:	1f bc       	out	0x2f, r1	; 47
    TCCR1B = 0x00;
    1eba:	1e bc       	out	0x2e, r1	; 46
    TCCR1C = 0x00;
    1ebc:	10 92 7a 00 	sts	0x007A, r1

    vMBPortTimersDisable(  );
    1ec0:	0e 94 3e 0f 	call	0x1e7c	; 0x1e7c <vMBPortTimersDisable>

    return TRUE;
}
    1ec4:	81 e0       	ldi	r24, 0x01	; 1
    1ec6:	08 95       	ret

00001ec8 <__vector_12>:
    /* Clear output compare flags for channel A/B. */
    TIFR |= _BV( OCF1A ) ;
}

ISR( SIG_OUTPUT_COMPARE1A )
{
    1ec8:	1f 92       	push	r1
    1eca:	0f 92       	push	r0
    1ecc:	0f b6       	in	r0, 0x3f	; 63
    1ece:	0f 92       	push	r0
    1ed0:	0b b6       	in	r0, 0x3b	; 59
    1ed2:	0f 92       	push	r0
    1ed4:	11 24       	eor	r1, r1
    1ed6:	2f 93       	push	r18
    1ed8:	3f 93       	push	r19
    1eda:	4f 93       	push	r20
    1edc:	5f 93       	push	r21
    1ede:	6f 93       	push	r22
    1ee0:	7f 93       	push	r23
    1ee2:	8f 93       	push	r24
    1ee4:	9f 93       	push	r25
    1ee6:	af 93       	push	r26
    1ee8:	bf 93       	push	r27
    1eea:	ef 93       	push	r30
    1eec:	ff 93       	push	r31
    ( void )pxMBPortCBTimerExpired(  );
    1eee:	e0 91 0d 07 	lds	r30, 0x070D
    1ef2:	f0 91 0e 07 	lds	r31, 0x070E
    1ef6:	09 95       	icall
}
    1ef8:	ff 91       	pop	r31
    1efa:	ef 91       	pop	r30
    1efc:	bf 91       	pop	r27
    1efe:	af 91       	pop	r26
    1f00:	9f 91       	pop	r25
    1f02:	8f 91       	pop	r24
    1f04:	7f 91       	pop	r23
    1f06:	6f 91       	pop	r22
    1f08:	5f 91       	pop	r21
    1f0a:	4f 91       	pop	r20
    1f0c:	3f 91       	pop	r19
    1f0e:	2f 91       	pop	r18
    1f10:	0f 90       	pop	r0
    1f12:	0b be       	out	0x3b, r0	; 59
    1f14:	0f 90       	pop	r0
    1f16:	0f be       	out	0x3f, r0	; 63
    1f18:	0f 90       	pop	r0
    1f1a:	1f 90       	pop	r1
    1f1c:	18 95       	reti

00001f1e <eMBRegisterCB>:
}
#endif

eMBErrorCode
eMBRegisterCB( UCHAR ucFunctionCode, pxMBFunctionHandler pxHandler )
{
    1f1e:	48 2f       	mov	r20, r24
    int             i;
    eMBErrorCode    eStatus;

    if( ( 0 < ucFunctionCode ) && ( ucFunctionCode <= 127 ) )
    1f20:	18 16       	cp	r1, r24
    1f22:	14 f0       	brlt	.+4      	; 0x1f28 <eMBRegisterCB+0xa>
    1f24:	82 e0       	ldi	r24, 0x02	; 2
    1f26:	08 95       	ret
    {
        ENTER_CRITICAL_SECTION(  );
    1f28:	f8 94       	cli
        if( pxHandler != NULL )
    1f2a:	61 15       	cp	r22, r1
    1f2c:	71 05       	cpc	r23, r1
    1f2e:	f9 f0       	breq	.+62     	; 0x1f6e <eMBRegisterCB+0x50>
    1f30:	e5 e0       	ldi	r30, 0x05	; 5
    1f32:	f1 e0       	ldi	r31, 0x01	; 1
    1f34:	80 e0       	ldi	r24, 0x00	; 0
    1f36:	90 e0       	ldi	r25, 0x00	; 0
        {
            for( i = 0; i < MB_FUNC_HANDLERS_MAX; i++ )
            {
                if( ( xFuncHandlers[i].pxHandler == NULL ) ||
    1f38:	20 81       	ld	r18, Z
    1f3a:	31 81       	ldd	r19, Z+1	; 0x01
    1f3c:	21 15       	cp	r18, r1
    1f3e:	31 05       	cpc	r19, r1
    1f40:	19 f0       	breq	.+6      	; 0x1f48 <eMBRegisterCB+0x2a>
    1f42:	26 17       	cp	r18, r22
    1f44:	37 07       	cpc	r19, r23
    1f46:	69 f4       	brne	.+26     	; 0x1f62 <eMBRegisterCB+0x44>
                    ( xFuncHandlers[i].pxHandler == pxHandler ) )
                {
                    xFuncHandlers[i].ucFunctionCode = ucFunctionCode;
    1f48:	fc 01       	movw	r30, r24
    1f4a:	ee 0f       	add	r30, r30
    1f4c:	ff 1f       	adc	r31, r31
    1f4e:	e8 0f       	add	r30, r24
    1f50:	f9 1f       	adc	r31, r25
    1f52:	ec 5f       	subi	r30, 0xFC	; 252
    1f54:	fe 4f       	sbci	r31, 0xFE	; 254
    1f56:	40 83       	st	Z, r20
                    xFuncHandlers[i].pxHandler = pxHandler;
    1f58:	72 83       	std	Z+2, r23	; 0x02
    1f5a:	61 83       	std	Z+1, r22	; 0x01
                    break;
                }
            }
            eStatus = ( i != MB_FUNC_HANDLERS_MAX ) ? MB_ENOERR : MB_ENORES;
    1f5c:	40 97       	sbiw	r24, 0x10	; 16
    1f5e:	11 f5       	brne	.+68     	; 0x1fa4 <eMBRegisterCB+0x86>
    1f60:	1f c0       	rjmp	.+62     	; 0x1fa0 <eMBRegisterCB+0x82>
    if( ( 0 < ucFunctionCode ) && ( ucFunctionCode <= 127 ) )
    {
        ENTER_CRITICAL_SECTION(  );
        if( pxHandler != NULL )
        {
            for( i = 0; i < MB_FUNC_HANDLERS_MAX; i++ )
    1f62:	01 96       	adiw	r24, 0x01	; 1
    1f64:	33 96       	adiw	r30, 0x03	; 3
    1f66:	80 31       	cpi	r24, 0x10	; 16
    1f68:	91 05       	cpc	r25, r1
    1f6a:	31 f7       	brne	.-52     	; 0x1f38 <eMBRegisterCB+0x1a>
    1f6c:	19 c0       	rjmp	.+50     	; 0x1fa0 <eMBRegisterCB+0x82>
    1f6e:	e4 e0       	ldi	r30, 0x04	; 4
    1f70:	f1 e0       	ldi	r31, 0x01	; 1
    1f72:	20 e0       	ldi	r18, 0x00	; 0
    1f74:	30 e0       	ldi	r19, 0x00	; 0
        }
        else
        {
            for( i = 0; i < MB_FUNC_HANDLERS_MAX; i++ )
            {
                if( xFuncHandlers[i].ucFunctionCode == ucFunctionCode )
    1f76:	80 81       	ld	r24, Z
    1f78:	84 17       	cp	r24, r20
    1f7a:	59 f4       	brne	.+22     	; 0x1f92 <eMBRegisterCB+0x74>
                {
                    xFuncHandlers[i].ucFunctionCode = 0;
    1f7c:	f9 01       	movw	r30, r18
    1f7e:	ee 0f       	add	r30, r30
    1f80:	ff 1f       	adc	r31, r31
    1f82:	e2 0f       	add	r30, r18
    1f84:	f3 1f       	adc	r31, r19
    1f86:	ec 5f       	subi	r30, 0xFC	; 252
    1f88:	fe 4f       	sbci	r31, 0xFE	; 254
    1f8a:	10 82       	st	Z, r1
                    xFuncHandlers[i].pxHandler = NULL;
    1f8c:	12 82       	std	Z+2, r1	; 0x02
    1f8e:	11 82       	std	Z+1, r1	; 0x01
    1f90:	09 c0       	rjmp	.+18     	; 0x1fa4 <eMBRegisterCB+0x86>
            }
            eStatus = ( i != MB_FUNC_HANDLERS_MAX ) ? MB_ENOERR : MB_ENORES;
        }
        else
        {
            for( i = 0; i < MB_FUNC_HANDLERS_MAX; i++ )
    1f92:	2f 5f       	subi	r18, 0xFF	; 255
    1f94:	3f 4f       	sbci	r19, 0xFF	; 255
    1f96:	33 96       	adiw	r30, 0x03	; 3
    1f98:	20 31       	cpi	r18, 0x10	; 16
    1f9a:	31 05       	cpc	r19, r1
    1f9c:	61 f7       	brne	.-40     	; 0x1f76 <eMBRegisterCB+0x58>
    1f9e:	02 c0       	rjmp	.+4      	; 0x1fa4 <eMBRegisterCB+0x86>
    1fa0:	84 e0       	ldi	r24, 0x04	; 4
    1fa2:	01 c0       	rjmp	.+2      	; 0x1fa6 <eMBRegisterCB+0x88>
    1fa4:	80 e0       	ldi	r24, 0x00	; 0
                }
            }
            /* Remove can't fail. */
            eStatus = MB_ENOERR;
        }
        EXIT_CRITICAL_SECTION(  );
    1fa6:	78 94       	sei
    else
    {
        eStatus = MB_EINVAL;
    }
    return eStatus;
}
    1fa8:	08 95       	ret

00001faa <eMBClose>:
eMBErrorCode
eMBClose( void )
{
    eMBErrorCode    eStatus = MB_ENOERR;

    if( eMBState == STATE_DISABLED )
    1faa:	80 91 03 01 	lds	r24, 0x0103
    1fae:	81 30       	cpi	r24, 0x01	; 1
    1fb0:	11 f0       	breq	.+4      	; 0x1fb6 <eMBClose+0xc>
    1fb2:	86 e0       	ldi	r24, 0x06	; 6
    1fb4:	08 95       	ret
    {
        if( pvMBFrameCloseCur != NULL )
    1fb6:	e0 91 a4 03 	lds	r30, 0x03A4
    1fba:	f0 91 a5 03 	lds	r31, 0x03A5
    1fbe:	30 97       	sbiw	r30, 0x00	; 0
    1fc0:	11 f4       	brne	.+4      	; 0x1fc6 <eMBClose+0x1c>
    1fc2:	80 e0       	ldi	r24, 0x00	; 0
    1fc4:	08 95       	ret
        {
            pvMBFrameCloseCur(  );
    1fc6:	09 95       	icall
    1fc8:	80 e0       	ldi	r24, 0x00	; 0
    else
    {
        eStatus = MB_EILLSTATE;
    }
    return eStatus;
}
    1fca:	08 95       	ret

00001fcc <eMBEnable>:
eMBErrorCode
eMBEnable( void )
{
    eMBErrorCode    eStatus = MB_ENOERR;

    if( eMBState == STATE_DISABLED )
    1fcc:	80 91 03 01 	lds	r24, 0x0103
    1fd0:	81 30       	cpi	r24, 0x01	; 1
    1fd2:	11 f0       	breq	.+4      	; 0x1fd8 <eMBEnable+0xc>
    1fd4:	86 e0       	ldi	r24, 0x06	; 6
    1fd6:	08 95       	ret
    {
        /* Activate the protocol stack. */
        pvMBFrameStartCur(  );
    1fd8:	e0 91 9e 03 	lds	r30, 0x039E
    1fdc:	f0 91 9f 03 	lds	r31, 0x039F
    1fe0:	09 95       	icall
        eMBState = STATE_ENABLED;
    1fe2:	10 92 03 01 	sts	0x0103, r1
    1fe6:	80 e0       	ldi	r24, 0x00	; 0
    else
    {
        eStatus = MB_EILLSTATE;
    }
    return eStatus;
}
    1fe8:	08 95       	ret

00001fea <eMBDisable>:
eMBErrorCode
eMBDisable( void )
{
    eMBErrorCode    eStatus;

    if( eMBState == STATE_ENABLED )
    1fea:	80 91 03 01 	lds	r24, 0x0103
    1fee:	88 23       	and	r24, r24
    1ff0:	51 f4       	brne	.+20     	; 0x2006 <eMBDisable+0x1c>
    {
        pvMBFrameStopCur(  );
    1ff2:	e0 91 a0 03 	lds	r30, 0x03A0
    1ff6:	f0 91 a1 03 	lds	r31, 0x03A1
    1ffa:	09 95       	icall
        eMBState = STATE_DISABLED;
    1ffc:	81 e0       	ldi	r24, 0x01	; 1
    1ffe:	80 93 03 01 	sts	0x0103, r24
    2002:	80 e0       	ldi	r24, 0x00	; 0
    2004:	08 95       	ret
        eStatus = MB_ENOERR;
    }
    else if( eMBState == STATE_DISABLED )
    2006:	81 30       	cpi	r24, 0x01	; 1
    2008:	11 f0       	breq	.+4      	; 0x200e <eMBDisable+0x24>
    200a:	86 e0       	ldi	r24, 0x06	; 6
    200c:	08 95       	ret
    200e:	80 e0       	ldi	r24, 0x00	; 0
    else
    {
        eStatus = MB_EILLSTATE;
    }
    return eStatus;
}
    2010:	08 95       	ret

00002012 <eMBPoll>:

eMBErrorCode
eMBPoll( void )
{
    2012:	df 93       	push	r29
    2014:	cf 93       	push	r28
    2016:	0f 92       	push	r0
    2018:	cd b7       	in	r28, 0x3d	; 61
    201a:	de b7       	in	r29, 0x3e	; 62
    int             i;
    eMBErrorCode    eStatus = MB_ENOERR;
    eMBEventType    eEvent;

    /* Check if the protocol stack is ready. */
    if( eMBState != STATE_ENABLED )
    201c:	80 91 03 01 	lds	r24, 0x0103
    2020:	88 23       	and	r24, r24
    2022:	11 f0       	breq	.+4      	; 0x2028 <eMBPoll+0x16>
    2024:	86 e0       	ldi	r24, 0x06	; 6
    2026:	7c c0       	rjmp	.+248    	; 0x2120 <eMBPoll+0x10e>
        return MB_EILLSTATE;
    }

    /* Check if there is a event available. If not return control to caller.
     * Otherwise we will handle the event. */
    if( xMBPortEventGet( &eEvent ) == TRUE )
    2028:	ce 01       	movw	r24, r28
    202a:	01 96       	adiw	r24, 0x01	; 1
    202c:	0e 94 aa 0d 	call	0x1b54	; 0x1b54 <xMBPortEventGet>
    2030:	81 30       	cpi	r24, 0x01	; 1
    2032:	09 f0       	breq	.+2      	; 0x2036 <eMBPoll+0x24>
    2034:	74 c0       	rjmp	.+232    	; 0x211e <eMBPoll+0x10c>
    {
        switch ( eEvent )
    2036:	99 81       	ldd	r25, Y+1	; 0x01
    2038:	91 30       	cpi	r25, 0x01	; 1
    203a:	21 f0       	breq	.+8      	; 0x2044 <eMBPoll+0x32>
    203c:	92 30       	cpi	r25, 0x02	; 2
    203e:	09 f0       	breq	.+2      	; 0x2042 <eMBPoll+0x30>
    2040:	6e c0       	rjmp	.+220    	; 0x211e <eMBPoll+0x10c>
    2042:	1b c0       	rjmp	.+54     	; 0x207a <eMBPoll+0x68>
        {
        case EV_READY:
            break;

        case EV_FRAME_RECEIVED:
            eStatus = peMBFrameReceiveCur( &ucRcvAddress, &ucMBFrame, &usLength );
    2044:	e0 91 a2 03 	lds	r30, 0x03A2
    2048:	f0 91 a3 03 	lds	r31, 0x03A3
    204c:	87 e9       	ldi	r24, 0x97	; 151
    204e:	93 e0       	ldi	r25, 0x03	; 3
    2050:	68 e9       	ldi	r22, 0x98	; 152
    2052:	73 e0       	ldi	r23, 0x03	; 3
    2054:	44 e9       	ldi	r20, 0x94	; 148
    2056:	53 e0       	ldi	r21, 0x03	; 3
    2058:	09 95       	icall
            if( eStatus == MB_ENOERR )
    205a:	88 23       	and	r24, r24
    205c:	09 f0       	breq	.+2      	; 0x2060 <eMBPoll+0x4e>
    205e:	5f c0       	rjmp	.+190    	; 0x211e <eMBPoll+0x10c>
            {
                /* Check if the frame is for us. If not ignore the frame. */
                if( ( ucRcvAddress == ucMBAddress ) || ( ucRcvAddress == MB_ADDRESS_BROADCAST ) )
    2060:	90 91 97 03 	lds	r25, 0x0397
    2064:	80 91 9a 03 	lds	r24, 0x039A
    2068:	98 17       	cp	r25, r24
    206a:	19 f0       	breq	.+6      	; 0x2072 <eMBPoll+0x60>
    206c:	99 23       	and	r25, r25
    206e:	09 f0       	breq	.+2      	; 0x2072 <eMBPoll+0x60>
    2070:	56 c0       	rjmp	.+172    	; 0x211e <eMBPoll+0x10c>
                {
                    ( void )xMBPortEventPost( EV_EXECUTE );
    2072:	82 e0       	ldi	r24, 0x02	; 2
    2074:	0e 94 a3 0d 	call	0x1b46	; 0x1b46 <xMBPortEventPost>
    2078:	52 c0       	rjmp	.+164    	; 0x211e <eMBPoll+0x10c>
                }
            }
            break;

        case EV_EXECUTE:
            ucFunctionCode = ucMBFrame[MB_PDU_FUNC_OFF];
    207a:	a0 91 98 03 	lds	r26, 0x0398
    207e:	b0 91 99 03 	lds	r27, 0x0399
    2082:	3c 91       	ld	r19, X
    2084:	30 93 96 03 	sts	0x0396, r19
            eException = MB_EX_ILLEGAL_FUNCTION;
    2088:	80 93 93 03 	sts	0x0393, r24
    208c:	e4 e0       	ldi	r30, 0x04	; 4
    208e:	f1 e0       	ldi	r31, 0x01	; 1
    2090:	80 e0       	ldi	r24, 0x00	; 0
    2092:	90 e0       	ldi	r25, 0x00	; 0
            for( i = 0; i < MB_FUNC_HANDLERS_MAX; i++ )
            {
                /* No more function handlers registered. Abort. */
                if( xFuncHandlers[i].ucFunctionCode == 0 )
    2094:	20 81       	ld	r18, Z
    2096:	22 23       	and	r18, r18
    2098:	c1 f0       	breq	.+48     	; 0x20ca <eMBPoll+0xb8>
                {
                    break;
                }
                else if( xFuncHandlers[i].ucFunctionCode == ucFunctionCode )
    209a:	23 17       	cp	r18, r19
    209c:	89 f4       	brne	.+34     	; 0x20c0 <eMBPoll+0xae>
                {
                    eException = xFuncHandlers[i].pxHandler( ucMBFrame, &usLength );
    209e:	fc 01       	movw	r30, r24
    20a0:	ee 0f       	add	r30, r30
    20a2:	ff 1f       	adc	r31, r31
    20a4:	e8 0f       	add	r30, r24
    20a6:	f9 1f       	adc	r31, r25
    20a8:	ec 5f       	subi	r30, 0xFC	; 252
    20aa:	fe 4f       	sbci	r31, 0xFE	; 254
    20ac:	01 80       	ldd	r0, Z+1	; 0x01
    20ae:	f2 81       	ldd	r31, Z+2	; 0x02
    20b0:	e0 2d       	mov	r30, r0
    20b2:	cd 01       	movw	r24, r26
    20b4:	64 e9       	ldi	r22, 0x94	; 148
    20b6:	73 e0       	ldi	r23, 0x03	; 3
    20b8:	09 95       	icall
    20ba:	80 93 93 03 	sts	0x0393, r24
    20be:	05 c0       	rjmp	.+10     	; 0x20ca <eMBPoll+0xb8>
            break;

        case EV_EXECUTE:
            ucFunctionCode = ucMBFrame[MB_PDU_FUNC_OFF];
            eException = MB_EX_ILLEGAL_FUNCTION;
            for( i = 0; i < MB_FUNC_HANDLERS_MAX; i++ )
    20c0:	01 96       	adiw	r24, 0x01	; 1
    20c2:	33 96       	adiw	r30, 0x03	; 3
    20c4:	80 31       	cpi	r24, 0x10	; 16
    20c6:	91 05       	cpc	r25, r1
    20c8:	29 f7       	brne	.-54     	; 0x2094 <eMBPoll+0x82>
                }
            }

            /* If the request was not sent to the broadcast address we
             * return a reply. */
            if( ucRcvAddress != MB_ADDRESS_BROADCAST )
    20ca:	80 91 97 03 	lds	r24, 0x0397
    20ce:	88 23       	and	r24, r24
    20d0:	31 f1       	breq	.+76     	; 0x211e <eMBPoll+0x10c>
            {
                if( eException != MB_EX_NONE )
    20d2:	90 91 93 03 	lds	r25, 0x0393
    20d6:	99 23       	and	r25, r25
    20d8:	99 f0       	breq	.+38     	; 0x2100 <eMBPoll+0xee>
                {
                    /* An exception occured. Build an error frame. */
                    usLength = 0;
                    ucMBFrame[usLength++] = ( UCHAR )( ucFunctionCode | MB_FUNC_ERROR );
    20da:	e0 91 98 03 	lds	r30, 0x0398
    20de:	f0 91 99 03 	lds	r31, 0x0399
    20e2:	80 91 96 03 	lds	r24, 0x0396
    20e6:	80 68       	ori	r24, 0x80	; 128
    20e8:	80 83       	st	Z, r24
                    ucMBFrame[usLength++] = eException;
    20ea:	e0 91 98 03 	lds	r30, 0x0398
    20ee:	f0 91 99 03 	lds	r31, 0x0399
    20f2:	91 83       	std	Z+1, r25	; 0x01
    20f4:	82 e0       	ldi	r24, 0x02	; 2
    20f6:	90 e0       	ldi	r25, 0x00	; 0
    20f8:	90 93 95 03 	sts	0x0395, r25
    20fc:	80 93 94 03 	sts	0x0394, r24
                }
                if( ( eMBCurrentMode == MB_ASCII ) && MB_ASCII_TIMEOUT_WAIT_BEFORE_SEND_MS )
                {
                    vMBPortTimersDelay( MB_ASCII_TIMEOUT_WAIT_BEFORE_SEND_MS );
                }                
                eStatus = peMBFrameSendCur( ucMBAddress, ucMBFrame, usLength );
    2100:	60 91 98 03 	lds	r22, 0x0398
    2104:	70 91 99 03 	lds	r23, 0x0399
    2108:	40 91 94 03 	lds	r20, 0x0394
    210c:	50 91 95 03 	lds	r21, 0x0395
    2110:	e0 91 9c 03 	lds	r30, 0x039C
    2114:	f0 91 9d 03 	lds	r31, 0x039D
    2118:	80 91 9a 03 	lds	r24, 0x039A
    211c:	09 95       	icall
    211e:	80 e0       	ldi	r24, 0x00	; 0
        case EV_FRAME_SENT:
            break;
        }
    }
    return MB_ENOERR;
}
    2120:	0f 90       	pop	r0
    2122:	cf 91       	pop	r28
    2124:	df 91       	pop	r29
    2126:	08 95       	ret

00002128 <eMBInit>:
};

/* ----------------------- Start implementation -----------------------------*/
eMBErrorCode
eMBInit( eMBMode eMode, UCHAR ucSlaveAddress, UCHAR ucPort, ULONG ulBaudRate, eMBParity eParity )
{
    2128:	ef 92       	push	r14
    212a:	ff 92       	push	r15
    212c:	0f 93       	push	r16
    212e:	1f 93       	push	r17
    2130:	f8 2e       	mov	r15, r24
    eMBErrorCode    eStatus = MB_ENOERR;

    /* check preconditions */
    if( ( ucSlaveAddress == MB_ADDRESS_BROADCAST ) ||
    2132:	86 2f       	mov	r24, r22
    2134:	81 50       	subi	r24, 0x01	; 1
    2136:	87 3f       	cpi	r24, 0xF7	; 247
    2138:	08 f0       	brcs	.+2      	; 0x213c <eMBInit+0x14>
    213a:	83 c0       	rjmp	.+262    	; 0x2242 <eMBInit+0x11a>
    {
        eStatus = MB_EINVAL;
    }
    else
    {
        ucMBAddress = ucSlaveAddress;
    213c:	60 93 9a 03 	sts	0x039A, r22

        switch ( eMode )
    2140:	ff 20       	and	r15, r15
    2142:	29 f0       	breq	.+10     	; 0x214e <eMBInit+0x26>
    2144:	81 e0       	ldi	r24, 0x01	; 1
    2146:	f8 16       	cp	r15, r24
    2148:	09 f0       	breq	.+2      	; 0x214c <eMBInit+0x24>
    214a:	7b c0       	rjmp	.+246    	; 0x2242 <eMBInit+0x11a>
    214c:	36 c0       	rjmp	.+108    	; 0x21ba <eMBInit+0x92>
        {
#if MB_RTU_ENABLED > 0
        case MB_RTU:
            pvMBFrameStartCur = eMBRTUStart;
    214e:	85 e7       	ldi	r24, 0x75	; 117
    2150:	97 e0       	ldi	r25, 0x07	; 7
    2152:	90 93 9f 03 	sts	0x039F, r25
    2156:	80 93 9e 03 	sts	0x039E, r24
            pvMBFrameStopCur = eMBRTUStop;
    215a:	88 ee       	ldi	r24, 0xE8	; 232
    215c:	96 e0       	ldi	r25, 0x06	; 6
    215e:	90 93 a1 03 	sts	0x03A1, r25
    2162:	80 93 a0 03 	sts	0x03A0, r24
            peMBFrameSendCur = eMBRTUSend;
    2166:	80 e8       	ldi	r24, 0x80	; 128
    2168:	97 e0       	ldi	r25, 0x07	; 7
    216a:	90 93 9d 03 	sts	0x039D, r25
    216e:	80 93 9c 03 	sts	0x039C, r24
            peMBFrameReceiveCur = eMBRTUReceive;
    2172:	8d ec       	ldi	r24, 0xCD	; 205
    2174:	97 e0       	ldi	r25, 0x07	; 7
    2176:	90 93 a3 03 	sts	0x03A3, r25
    217a:	80 93 a2 03 	sts	0x03A2, r24
            pvMBFrameCloseCur = MB_PORT_HAS_CLOSE ? vMBPortClose : NULL;
    217e:	10 92 a5 03 	sts	0x03A5, r1
    2182:	10 92 a4 03 	sts	0x03A4, r1
            pxMBFrameCBByteReceived = xMBRTUReceiveFSM;
    2186:	8c e2       	ldi	r24, 0x2C	; 44
    2188:	97 e0       	ldi	r25, 0x07	; 7
    218a:	90 93 10 07 	sts	0x0710, r25
    218e:	80 93 0f 07 	sts	0x070F, r24
            pxMBFrameCBTransmitterEmpty = xMBRTUTransmitFSM;
    2192:	81 ef       	ldi	r24, 0xF1	; 241
    2194:	96 e0       	ldi	r25, 0x06	; 6
    2196:	90 93 0c 07 	sts	0x070C, r25
    219a:	80 93 0b 07 	sts	0x070B, r24
            pxMBPortCBTimerExpired = xMBRTUTimerT35Expired;
    219e:	81 ed       	ldi	r24, 0xD1	; 209
    21a0:	96 e0       	ldi	r25, 0x06	; 6
    21a2:	90 93 0e 07 	sts	0x070E, r25
    21a6:	80 93 0d 07 	sts	0x070D, r24

            eStatus = eMBRTUInit( ucMBAddress, ucPort, ulBaudRate, eParity );
    21aa:	86 2f       	mov	r24, r22
    21ac:	64 2f       	mov	r22, r20
    21ae:	a9 01       	movw	r20, r18
    21b0:	98 01       	movw	r18, r16
    21b2:	0e 2d       	mov	r16, r14
    21b4:	0e 94 02 08 	call	0x1004	; 0x1004 <eMBRTUInit>
    21b8:	35 c0       	rjmp	.+106    	; 0x2224 <eMBInit+0xfc>
            break;
#endif
#if MB_ASCII_ENABLED > 0
        case MB_ASCII:
            pvMBFrameStartCur = eMBASCIIStart;
    21ba:	8d e5       	ldi	r24, 0x5D	; 93
    21bc:	99 e0       	ldi	r25, 0x09	; 9
    21be:	90 93 9f 03 	sts	0x039F, r25
    21c2:	80 93 9e 03 	sts	0x039E, r24
            pvMBFrameStopCur = eMBASCIIStop;
    21c6:	84 e5       	ldi	r24, 0x54	; 84
    21c8:	99 e0       	ldi	r25, 0x09	; 9
    21ca:	90 93 a1 03 	sts	0x03A1, r25
    21ce:	80 93 a0 03 	sts	0x03A0, r24
            peMBFrameSendCur = eMBASCIISend;
    21d2:	80 e1       	ldi	r24, 0x10	; 16
    21d4:	99 e0       	ldi	r25, 0x09	; 9
    21d6:	90 93 9d 03 	sts	0x039D, r25
    21da:	80 93 9c 03 	sts	0x039C, r24
            peMBFrameReceiveCur = eMBASCIIReceive;
    21de:	8b e3       	ldi	r24, 0x3B	; 59
    21e0:	98 e0       	ldi	r25, 0x08	; 8
    21e2:	90 93 a3 03 	sts	0x03A3, r25
    21e6:	80 93 a2 03 	sts	0x03A2, r24
            pvMBFrameCloseCur = MB_PORT_HAS_CLOSE ? vMBPortClose : NULL;
    21ea:	10 92 a5 03 	sts	0x03A5, r1
    21ee:	10 92 a4 03 	sts	0x03A4, r1
            pxMBFrameCBByteReceived = xMBASCIIReceiveFSM;
    21f2:	89 e6       	ldi	r24, 0x69	; 105
    21f4:	99 e0       	ldi	r25, 0x09	; 9
    21f6:	90 93 10 07 	sts	0x0710, r25
    21fa:	80 93 0f 07 	sts	0x070F, r24
            pxMBFrameCBTransmitterEmpty = xMBASCIITransmitFSM;
    21fe:	8d e7       	ldi	r24, 0x7D	; 125
    2200:	98 e0       	ldi	r25, 0x08	; 8
    2202:	90 93 0c 07 	sts	0x070C, r25
    2206:	80 93 0b 07 	sts	0x070B, r24
            pxMBPortCBTimerExpired = xMBASCIITimerT1SExpired;
    220a:	82 e7       	ldi	r24, 0x72	; 114
    220c:	98 e0       	ldi	r25, 0x08	; 8
    220e:	90 93 0e 07 	sts	0x070E, r25
    2212:	80 93 0d 07 	sts	0x070D, r24

            eStatus = eMBASCIIInit( ucMBAddress, ucPort, ulBaudRate, eParity );
    2216:	86 2f       	mov	r24, r22
    2218:	64 2f       	mov	r22, r20
    221a:	a9 01       	movw	r20, r18
    221c:	98 01       	movw	r18, r16
    221e:	0e 2d       	mov	r16, r14
    2220:	0e 94 01 0a 	call	0x1402	; 0x1402 <eMBASCIIInit>
    2224:	18 2f       	mov	r17, r24
#endif
        default:
            eStatus = MB_EINVAL;
        }

        if( eStatus == MB_ENOERR )
    2226:	88 23       	and	r24, r24
    2228:	69 f4       	brne	.+26     	; 0x2244 <eMBInit+0x11c>
        {
            if( !xMBPortEventInit(  ) )
    222a:	0e 94 9f 0d 	call	0x1b3e	; 0x1b3e <xMBPortEventInit>
    222e:	88 23       	and	r24, r24
    2230:	11 f4       	brne	.+4      	; 0x2236 <eMBInit+0x10e>
    2232:	13 e0       	ldi	r17, 0x03	; 3
    2234:	07 c0       	rjmp	.+14     	; 0x2244 <eMBInit+0x11c>
                /* port dependent event module initalization failed. */
                eStatus = MB_EPORTERR;
            }
            else
            {
                eMBCurrentMode = eMode;
    2236:	f0 92 9b 03 	sts	0x039B, r15
                eMBState = STATE_DISABLED;
    223a:	81 e0       	ldi	r24, 0x01	; 1
    223c:	80 93 03 01 	sts	0x0103, r24
    2240:	01 c0       	rjmp	.+2      	; 0x2244 <eMBInit+0x11c>
    2242:	12 e0       	ldi	r17, 0x02	; 2
            }
        }
    }
    return eStatus;
}
    2244:	81 2f       	mov	r24, r17
    2246:	1f 91       	pop	r17
    2248:	0f 91       	pop	r16
    224a:	ff 90       	pop	r15
    224c:	ef 90       	pop	r14
    224e:	08 95       	ret

00002250 <readDigitalInput>:
#include "../main.h"
#include "digital_in_out_func.h"

void readDigitalInput( uint8_t in[25] )
{
    2250:	dc 01       	movw	r26, r24
	uint8_t i, in0, in1, bit_mask = 0x80;

	in0 = PINC;
    2252:	53 b3       	in	r21, 0x13	; 19
	in1 = PIND;
    2254:	40 b3       	in	r20, 0x10	; 16
    2256:	fc 01       	movw	r30, r24
    2258:	30 e0       	ldi	r19, 0x00	; 0
    225a:	20 e8       	ldi	r18, 0x80	; 128

	for( i = 0; i < 8; i++ ) {
		( in0 & bit_mask ) ? ( in[ i + 0 ] |= 1 ) : ( in[ i + 0 ] &= ~1 );
    225c:	82 2f       	mov	r24, r18
    225e:	85 23       	and	r24, r21
    2260:	90 81       	ld	r25, Z
    2262:	88 23       	and	r24, r24
    2264:	11 f0       	breq	.+4      	; 0x226a <readDigitalInput+0x1a>
    2266:	91 60       	ori	r25, 0x01	; 1
    2268:	01 c0       	rjmp	.+2      	; 0x226c <readDigitalInput+0x1c>
    226a:	9e 7f       	andi	r25, 0xFE	; 254
    226c:	90 83       	st	Z, r25
		( in1 & bit_mask ) ? ( in[ i + 8 ] |= 1 ) : ( in[ i + 8 ] &= ~1 );
    226e:	82 2f       	mov	r24, r18
    2270:	84 23       	and	r24, r20
    2272:	90 85       	ldd	r25, Z+8	; 0x08
    2274:	88 23       	and	r24, r24
    2276:	11 f0       	breq	.+4      	; 0x227c <readDigitalInput+0x2c>
    2278:	91 60       	ori	r25, 0x01	; 1
    227a:	01 c0       	rjmp	.+2      	; 0x227e <readDigitalInput+0x2e>
    227c:	9e 7f       	andi	r25, 0xFE	; 254
    227e:	90 87       	std	Z+8, r25	; 0x08
	uint8_t i, in0, in1, bit_mask = 0x80;

	in0 = PINC;
	in1 = PIND;

	for( i = 0; i < 8; i++ ) {
    2280:	3f 5f       	subi	r19, 0xFF	; 255
    2282:	31 96       	adiw	r30, 0x01	; 1
    2284:	38 30       	cpi	r19, 0x08	; 8
    2286:	11 f0       	breq	.+4      	; 0x228c <readDigitalInput+0x3c>
		( in0 & bit_mask ) ? ( in[ i + 0 ] |= 1 ) : ( in[ i + 0 ] &= ~1 );
		( in1 & bit_mask ) ? ( in[ i + 8 ] |= 1 ) : ( in[ i + 8 ] &= ~1 );
		bit_mask >>= 1;
    2288:	26 95       	lsr	r18
    228a:	e8 cf       	rjmp	.-48     	; 0x225c <readDigitalInput+0xc>
	}

	( PING & MCU_VCC_FB0_bm ) ? ( in[ 20 ] = 1 ) : ( in[ 20 ] = 0 );
    228c:	80 91 63 00 	lds	r24, 0x0063
    2290:	84 ff       	sbrs	r24, 4
    2292:	05 c0       	rjmp	.+10     	; 0x229e <readDigitalInput+0x4e>
    2294:	81 e0       	ldi	r24, 0x01	; 1
    2296:	54 96       	adiw	r26, 0x14	; 20
    2298:	8c 93       	st	X, r24
    229a:	54 97       	sbiw	r26, 0x14	; 20
    229c:	03 c0       	rjmp	.+6      	; 0x22a4 <readDigitalInput+0x54>
    229e:	54 96       	adiw	r26, 0x14	; 20
    22a0:	1c 92       	st	X, r1
    22a2:	54 97       	sbiw	r26, 0x14	; 20
	( PING & MCU_VCC_FB1_bm ) ? ( in[ 21 ] = 1 ) : ( in[ 21 ] = 0 );
    22a4:	80 91 63 00 	lds	r24, 0x0063
    22a8:	83 ff       	sbrs	r24, 3
    22aa:	05 c0       	rjmp	.+10     	; 0x22b6 <readDigitalInput+0x66>
    22ac:	81 e0       	ldi	r24, 0x01	; 1
    22ae:	55 96       	adiw	r26, 0x15	; 21
    22b0:	8c 93       	st	X, r24
    22b2:	55 97       	sbiw	r26, 0x15	; 21
    22b4:	03 c0       	rjmp	.+6      	; 0x22bc <readDigitalInput+0x6c>
    22b6:	55 96       	adiw	r26, 0x15	; 21
    22b8:	1c 92       	st	X, r1
    22ba:	55 97       	sbiw	r26, 0x15	; 21
	( PINE & MCU_DO_DIAG0_bm ) ? ( in[ 22 ] = 1 ) : ( in[ 22 ] = 0 );
    22bc:	0f 9b       	sbis	0x01, 7	; 1
    22be:	05 c0       	rjmp	.+10     	; 0x22ca <readDigitalInput+0x7a>
    22c0:	81 e0       	ldi	r24, 0x01	; 1
    22c2:	56 96       	adiw	r26, 0x16	; 22
    22c4:	8c 93       	st	X, r24
    22c6:	56 97       	sbiw	r26, 0x16	; 22
    22c8:	03 c0       	rjmp	.+6      	; 0x22d0 <readDigitalInput+0x80>
    22ca:	56 96       	adiw	r26, 0x16	; 22
    22cc:	1c 92       	st	X, r1
    22ce:	56 97       	sbiw	r26, 0x16	; 22
	( PINE & MCU_DO_DIAG1_bm ) ? ( in[ 23 ] = 1 ) : ( in[ 23 ] = 0 );
    22d0:	0b 9b       	sbis	0x01, 3	; 1
    22d2:	05 c0       	rjmp	.+10     	; 0x22de <readDigitalInput+0x8e>
    22d4:	81 e0       	ldi	r24, 0x01	; 1
    22d6:	57 96       	adiw	r26, 0x17	; 23
    22d8:	8c 93       	st	X, r24
    22da:	57 97       	sbiw	r26, 0x17	; 23
    22dc:	03 c0       	rjmp	.+6      	; 0x22e4 <readDigitalInput+0x94>
    22de:	57 96       	adiw	r26, 0x17	; 23
    22e0:	1c 92       	st	X, r1
    22e2:	57 97       	sbiw	r26, 0x17	; 23

	( PINB & MCU_RUN_STOP_bm ) ? ( in[ 24 ] = 1 ) : ( in[ 24 ] = 0 );
    22e4:	b7 9b       	sbis	0x16, 7	; 22
    22e6:	04 c0       	rjmp	.+8      	; 0x22f0 <readDigitalInput+0xa0>
    22e8:	81 e0       	ldi	r24, 0x01	; 1
    22ea:	58 96       	adiw	r26, 0x18	; 24
    22ec:	8c 93       	st	X, r24
    22ee:	08 95       	ret
    22f0:	58 96       	adiw	r26, 0x18	; 24
    22f2:	1c 92       	st	X, r1
    22f4:	08 95       	ret

000022f6 <initDigitalInput>:
}

void initDigitalInput( void )
{
	DDRC = (uint8_t)~(
    22f6:	14 ba       	out	0x14, r1	; 20
		MCU_DI0_bm | MCU_DI1_bm | MCU_DI2_bm | MCU_DI3_bm |
		MCU_DI4_bm | MCU_DI5_bm | MCU_DI6_bm | MCU_DI7_bm
	);

	DDRD = (uint8_t)~(
    22f8:	11 ba       	out	0x11, r1	; 17
		MCU_DI8_bm | MCU_DI9_bm | MCU_DI10_bm | MCU_DI11_bm |
		MCU_DI12_bm | MCU_DI13_bm | MCU_DI14_bm | MCU_DI15_bm
	);
}
    22fa:	08 95       	ret

000022fc <writeDigitalOutput>:

///////////////////////////////////////////////////////////////////////////////////////////////////////////////////////

void writeDigitalOutput( uint8_t out[16] )
{
    22fc:	fc 01       	movw	r30, r24
    22fe:	30 e0       	ldi	r19, 0x00	; 0
    2300:	20 e0       	ldi	r18, 0x00	; 0
    2302:	40 e0       	ldi	r20, 0x00	; 0
    2304:	90 e8       	ldi	r25, 0x80	; 128
	uint8_t i, out0 = 0, out1 = 0, bit_mask = 0x80;

	for( i = 0; i < 8; i++ ) {
		( 1 & out[i + 0] ) ? ( out0 |= bit_mask ) : 0;
    2306:	80 81       	ld	r24, Z
    2308:	80 fd       	sbrc	r24, 0
    230a:	29 2b       	or	r18, r25
		( 1 & out[i + 8] ) ? ( out1 |= bit_mask ) : 0;
    230c:	80 85       	ldd	r24, Z+8	; 0x08
    230e:	80 fd       	sbrc	r24, 0
    2310:	49 2b       	or	r20, r25

void writeDigitalOutput( uint8_t out[16] )
{
	uint8_t i, out0 = 0, out1 = 0, bit_mask = 0x80;

	for( i = 0; i < 8; i++ ) {
    2312:	3f 5f       	subi	r19, 0xFF	; 255
    2314:	31 96       	adiw	r30, 0x01	; 1
    2316:	38 30       	cpi	r19, 0x08	; 8
    2318:	11 f0       	breq	.+4      	; 0x231e <writeDigitalOutput+0x22>
		( 1 & out[i + 0] ) ? ( out0 |= bit_mask ) : 0;
		( 1 & out[i + 8] ) ? ( out1 |= bit_mask ) : 0;
		bit_mask >>= 1;
    231a:	96 95       	lsr	r25
    231c:	f4 cf       	rjmp	.-24     	; 0x2306 <writeDigitalOutput+0xa>
	}

	PORTA = out0;
    231e:	2b bb       	out	0x1b, r18	; 27
	PORTB &= ~MCU_DO_CS0_bm;
    2320:	c6 98       	cbi	0x18, 6	; 24
	asm("nop\n");
    2322:	00 00       	nop
	PORTE &= ~MCU_DO_WR_bm;
    2324:	1e 98       	cbi	0x03, 6	; 3
	asm("nop\n");
    2326:	00 00       	nop
	PORTE |= MCU_DO_WR_bm;
    2328:	1e 9a       	sbi	0x03, 6	; 3
	asm("nop\n");
    232a:	00 00       	nop
	PORTB |= MCU_DO_CS0_bm;
    232c:	c6 9a       	sbi	0x18, 6	; 24

	PORTA = out1;
    232e:	4b bb       	out	0x1b, r20	; 27
	PORTE &= ~MCU_DO_CS1_bm;
    2330:	1c 98       	cbi	0x03, 4	; 3
	asm("nop\n");
    2332:	00 00       	nop
	PORTE &= ~MCU_DO_WR_bm;
    2334:	1e 98       	cbi	0x03, 6	; 3
	asm("nop\n");
    2336:	00 00       	nop
	PORTE |= MCU_DO_WR_bm;
    2338:	1e 9a       	sbi	0x03, 6	; 3
	asm("nop\n");
    233a:	00 00       	nop
	PORTE |= MCU_DO_CS1_bm;
    233c:	1c 9a       	sbi	0x03, 4	; 3

	PORTA = 0;
    233e:	1b ba       	out	0x1b, r1	; 27
}
    2340:	08 95       	ret

00002342 <initDigitalOutput>:

void initDigitalOutput(void)
{
	PORTE &= ~MCU_DO_DIS_bm;
    2342:	1d 98       	cbi	0x03, 5	; 3
	PORTE |= MCU_DO_CS1_bm | MCU_DO_WR_bm;
    2344:	83 b1       	in	r24, 0x03	; 3
    2346:	80 65       	ori	r24, 0x50	; 80
    2348:	83 b9       	out	0x03, r24	; 3
	DDRE |= MCU_DO_WR_bm | MCU_DO_DIS_bm | MCU_DO_CS1_bm;
    234a:	82 b1       	in	r24, 0x02	; 2
    234c:	80 67       	ori	r24, 0x70	; 112
    234e:	82 b9       	out	0x02, r24	; 2

	PORTA = 0;
    2350:	1b ba       	out	0x1b, r1	; 27
	DDRA =
    2352:	8f ef       	ldi	r24, 0xFF	; 255
    2354:	8a bb       	out	0x1a, r24	; 26
	(
		MCU_D7_bm | MCU_D6_bm | MCU_D5_bm | MCU_D4_bm |
		MCU_D3_bm | MCU_D2_bm | MCU_D1_bm | MCU_D0_bm
	);

	PORTB |= MCU_DO_CS0_bm;
    2356:	c6 9a       	sbi	0x18, 6	; 24
	DDRB |= MCU_DO_CS0_bm;
    2358:	be 9a       	sbi	0x17, 6	; 23

	PORTE |= MCU_DO_DIS_bm;
    235a:	1d 9a       	sbi	0x03, 5	; 3
}
    235c:	08 95       	ret

0000235e <readAddressSwitch>:
}

///////////////////////////////////////////////////////////////////////////////////////////////////////////////////////

uint8_t readAddressSwitch(void)
{
    235e:	40 e0       	ldi	r20, 0x00	; 0
    2360:	20 e0       	ldi	r18, 0x00	; 0
    2362:	30 e0       	ldi	r19, 0x00	; 0
	uint8_t i, address = 0;

	for( i = 0; i < 8; i++ ) {
		PORTF &= ~( MCU_RS485_A2_bm | MCU_RS485_A1_bm | MCU_RS485_A0_bm );
    2364:	80 91 62 00 	lds	r24, 0x0062
    2368:	88 7f       	andi	r24, 0xF8	; 248
    236a:	80 93 62 00 	sts	0x0062, r24
		PORTF |= i;
    236e:	80 91 62 00 	lds	r24, 0x0062
    2372:	82 2b       	or	r24, r18
    2374:	80 93 62 00 	sts	0x0062, r24
		asm("nop\n");asm("nop\n");asm("nop\n");
    2378:	00 00       	nop
    237a:	00 00       	nop
    237c:	00 00       	nop
		address |= ( ( ( PINF & MCU_RS485_AN_bm ) ? 1:0 )<<i );
    237e:	80 b1       	in	r24, 0x00	; 0
    2380:	90 e0       	ldi	r25, 0x00	; 0
    2382:	53 e0       	ldi	r21, 0x03	; 3
    2384:	96 95       	lsr	r25
    2386:	87 95       	ror	r24
    2388:	5a 95       	dec	r21
    238a:	e1 f7       	brne	.-8      	; 0x2384 <readAddressSwitch+0x26>
    238c:	81 70       	andi	r24, 0x01	; 1
    238e:	90 70       	andi	r25, 0x00	; 0
    2390:	02 2e       	mov	r0, r18
    2392:	02 c0       	rjmp	.+4      	; 0x2398 <readAddressSwitch+0x3a>
    2394:	88 0f       	add	r24, r24
    2396:	99 1f       	adc	r25, r25
    2398:	0a 94       	dec	r0
    239a:	e2 f7       	brpl	.-8      	; 0x2394 <readAddressSwitch+0x36>
    239c:	48 2b       	or	r20, r24
		asm("nop\n");asm("nop\n");asm("nop\n");
    239e:	00 00       	nop
    23a0:	00 00       	nop
    23a2:	00 00       	nop
    23a4:	2f 5f       	subi	r18, 0xFF	; 255
    23a6:	3f 4f       	sbci	r19, 0xFF	; 255

uint8_t readAddressSwitch(void)
{
	uint8_t i, address = 0;

	for( i = 0; i < 8; i++ ) {
    23a8:	28 30       	cpi	r18, 0x08	; 8
    23aa:	31 05       	cpc	r19, r1
    23ac:	d9 f6       	brne	.-74     	; 0x2364 <readAddressSwitch+0x6>
		address |= ( ( ( PINF & MCU_RS485_AN_bm ) ? 1:0 )<<i );
		asm("nop\n");asm("nop\n");asm("nop\n");
	}

	return address;
}
    23ae:	84 2f       	mov	r24, r20
    23b0:	08 95       	ret

000023b2 <initAddressSwitch>:

void initAddressSwitch(void)
{
	DDRF &= ~( MCU_RS485_AN_bm );
    23b2:	e1 e6       	ldi	r30, 0x61	; 97
    23b4:	f0 e0       	ldi	r31, 0x00	; 0
    23b6:	80 81       	ld	r24, Z
    23b8:	87 7f       	andi	r24, 0xF7	; 247
    23ba:	80 83       	st	Z, r24
	DDRF |= ( MCU_RS485_A2_bm | MCU_RS485_A1_bm | MCU_RS485_A0_bm );
    23bc:	80 81       	ld	r24, Z
    23be:	87 60       	ori	r24, 0x07	; 7
    23c0:	80 83       	st	Z, r24
}
    23c2:	08 95       	ret

000023c4 <writeHmiLed>:
	PORTE |= MCU_DO_DIS_bm;
}
///////////////////////////////////////////////////////////////////////////////////////////////////////////////////////

void writeHmiLed( uint8_t in[40] )
{
    23c4:	ef 92       	push	r14
    23c6:	ff 92       	push	r15
    23c8:	0f 93       	push	r16
    23ca:	1f 93       	push	r17
    23cc:	df 93       	push	r29
    23ce:	cf 93       	push	r28
    23d0:	00 d0       	rcall	.+0      	; 0x23d2 <writeHmiLed+0xe>
    23d2:	00 d0       	rcall	.+0      	; 0x23d4 <writeHmiLed+0x10>
    23d4:	0f 92       	push	r0
    23d6:	cd b7       	in	r28, 0x3d	; 61
    23d8:	de b7       	in	r29, 0x3e	; 62
    23da:	8c 01       	movw	r16, r24
	uint8_t i, j, n, bit_mask0, bit_mask1;
	uint8_t data[5] = { 0 };
    23dc:	fe 01       	movw	r30, r28
    23de:	31 96       	adiw	r30, 0x01	; 1
    23e0:	85 e0       	ldi	r24, 0x05	; 5
    23e2:	df 01       	movw	r26, r30
    23e4:	1d 92       	st	X+, r1
    23e6:	8a 95       	dec	r24
    23e8:	e9 f7       	brne	.-6      	; 0x23e4 <writeHmiLed+0x20>
    23ea:	80 e0       	ldi	r24, 0x00	; 0
		bit_mask0 = 16;
		bit_mask1 = 1;
		
		for( j = 0; j < 4; j++ ) {
			if( 1 & in[ i +  0 ] ) {
				data[n] |= bit_mask0;
    23ec:	7f 01       	movw	r14, r30
	uint8_t i, j, n, bit_mask0, bit_mask1;
	uint8_t data[5] = { 0 };

	n = 0;
	for( i = 0; i < 20; ) {
		n = i>>2;
    23ee:	48 2f       	mov	r20, r24
    23f0:	60 e1       	ldi	r22, 0x10	; 16
    23f2:	51 e0       	ldi	r21, 0x01	; 1
    23f4:	86 95       	lsr	r24
    23f6:	86 95       	lsr	r24
		bit_mask0 = 16;
		bit_mask1 = 1;
		
		for( j = 0; j < 4; j++ ) {
			if( 1 & in[ i +  0 ] ) {
				data[n] |= bit_mask0;
    23f8:	97 01       	movw	r18, r14
    23fa:	28 0f       	add	r18, r24
    23fc:	31 1d       	adc	r19, r1
		n = i>>2;

		bit_mask0 = 16;
		bit_mask1 = 1;
		
		for( j = 0; j < 4; j++ ) {
    23fe:	94 2f       	mov	r25, r20
    2400:	9c 5f       	subi	r25, 0xFC	; 252
			if( 1 & in[ i +  0 ] ) {
    2402:	a4 2f       	mov	r26, r20
    2404:	b0 e0       	ldi	r27, 0x00	; 0
    2406:	f8 01       	movw	r30, r16
    2408:	ea 0f       	add	r30, r26
    240a:	fb 1f       	adc	r31, r27
    240c:	80 81       	ld	r24, Z
    240e:	80 ff       	sbrs	r24, 0
    2410:	04 c0       	rjmp	.+8      	; 0x241a <writeHmiLed+0x56>
				data[n] |= bit_mask0;
    2412:	f9 01       	movw	r30, r18
    2414:	80 81       	ld	r24, Z
    2416:	86 2b       	or	r24, r22
    2418:	80 83       	st	Z, r24
			}

			if( 1 & in[ i + 20 ] ) {
    241a:	a0 0f       	add	r26, r16
    241c:	b1 1f       	adc	r27, r17
    241e:	54 96       	adiw	r26, 0x14	; 20
    2420:	8c 91       	ld	r24, X
    2422:	80 ff       	sbrs	r24, 0
    2424:	04 c0       	rjmp	.+8      	; 0x242e <writeHmiLed+0x6a>
				data[n] |= bit_mask1;
    2426:	d9 01       	movw	r26, r18
    2428:	8c 91       	ld	r24, X
    242a:	85 2b       	or	r24, r21
    242c:	8c 93       	st	X, r24
			}

			bit_mask0 <<= 1;
			bit_mask1 <<= 1;

			++i;
    242e:	4f 5f       	subi	r20, 0xFF	; 255
		n = i>>2;

		bit_mask0 = 16;
		bit_mask1 = 1;
		
		for( j = 0; j < 4; j++ ) {
    2430:	49 17       	cp	r20, r25
    2432:	19 f0       	breq	.+6      	; 0x243a <writeHmiLed+0x76>

			if( 1 & in[ i + 20 ] ) {
				data[n] |= bit_mask1;
			}

			bit_mask0 <<= 1;
    2434:	66 0f       	add	r22, r22
			bit_mask1 <<= 1;
    2436:	55 0f       	add	r21, r21
    2438:	e4 cf       	rjmp	.-56     	; 0x2402 <writeHmiLed+0x3e>
{
	uint8_t i, j, n, bit_mask0, bit_mask1;
	uint8_t data[5] = { 0 };

	n = 0;
	for( i = 0; i < 20; ) {
    243a:	44 31       	cpi	r20, 0x14	; 20
    243c:	11 f0       	breq	.+4      	; 0x2442 <writeHmiLed+0x7e>
    243e:	84 2f       	mov	r24, r20
    2440:	d6 cf       	rjmp	.-84     	; 0x23ee <writeHmiLed+0x2a>

			++i;
		}
	}

	spi_send_byte( data[0] );
    2442:	89 81       	ldd	r24, Y+1	; 0x01
    2444:	0e 94 62 12 	call	0x24c4	; 0x24c4 <spi_send_byte>
	spi_send_data( &data[1], 4 );
    2448:	ce 01       	movw	r24, r28
    244a:	02 96       	adiw	r24, 0x02	; 2
    244c:	64 e0       	ldi	r22, 0x04	; 4
    244e:	70 e0       	ldi	r23, 0x00	; 0
    2450:	0e 94 6c 12 	call	0x24d8	; 0x24d8 <spi_send_data>

	strobe_hmi_led();
    2454:	c5 9a       	sbi	0x18, 5	; 24
	unstrobe_hmi_led();
    2456:	c5 98       	cbi	0x18, 5	; 24
}
    2458:	0f 90       	pop	r0
    245a:	0f 90       	pop	r0
    245c:	0f 90       	pop	r0
    245e:	0f 90       	pop	r0
    2460:	0f 90       	pop	r0
    2462:	cf 91       	pop	r28
    2464:	df 91       	pop	r29
    2466:	1f 91       	pop	r17
    2468:	0f 91       	pop	r16
    246a:	ff 90       	pop	r15
    246c:	ef 90       	pop	r14
    246e:	08 95       	ret

00002470 <initHmiLed>:

void initHmiLed( void )
{
    2470:	df 93       	push	r29
    2472:	cf 93       	push	r28
    2474:	cd b7       	in	r28, 0x3d	; 61
    2476:	de b7       	in	r29, 0x3e	; 62
    2478:	a8 97       	sbiw	r28, 0x28	; 40
    247a:	0f b6       	in	r0, 0x3f	; 63
    247c:	f8 94       	cli
    247e:	de bf       	out	0x3e, r29	; 62
    2480:	0f be       	out	0x3f, r0	; 63
    2482:	cd bf       	out	0x3d, r28	; 61
	uint8_t buffer[40] = { 0 };
    2484:	fe 01       	movw	r30, r28
    2486:	31 96       	adiw	r30, 0x01	; 1
    2488:	88 e2       	ldi	r24, 0x28	; 40
    248a:	df 01       	movw	r26, r30
    248c:	1d 92       	st	X+, r1
    248e:	8a 95       	dec	r24
    2490:	e9 f7       	brne	.-6      	; 0x248c <initHmiLed+0x1c>

	DDRB |= MCU_CS2_bm;
    2492:	bd 9a       	sbi	0x17, 5	; 23

	writeHmiLed( buffer );
    2494:	cf 01       	movw	r24, r30
    2496:	0e 94 e2 11 	call	0x23c4	; 0x23c4 <writeHmiLed>

	strobe_hmi_led();
    249a:	c5 9a       	sbi	0x18, 5	; 24
	asm("nop\n");
    249c:	00 00       	nop
	unstrobe_hmi_led();
    249e:	c5 98       	cbi	0x18, 5	; 24
}
    24a0:	a8 96       	adiw	r28, 0x28	; 40
    24a2:	0f b6       	in	r0, 0x3f	; 63
    24a4:	f8 94       	cli
    24a6:	de bf       	out	0x3e, r29	; 62
    24a8:	0f be       	out	0x3f, r0	; 63
    24aa:	cd bf       	out	0x3d, r28	; 61
    24ac:	cf 91       	pop	r28
    24ae:	df 91       	pop	r29
    24b0:	08 95       	ret

000024b2 <spi_init>:
 *
 * By default, the highest SPI frequency available is used.
 */
void spi_init()
{
	if( !(SPCR & (1 << SPE)) ) {
    24b2:	6e 99       	sbic	0x0d, 6	; 13
    24b4:	06 c0       	rjmp	.+12     	; 0x24c2 <spi_init+0x10>
		/* configure pins */
		spi_config_pin_mosi();
    24b6:	ba 9a       	sbi	0x17, 2	; 23
		spi_config_pin_sck();
    24b8:	b9 9a       	sbi	0x17, 1	; 23
		spi_config_pin_miso();
    24ba:	bb 98       	cbi	0x17, 3	; 23
/**
 * Switches to the highest SPI frequency possible.
 */
void spi_high_frequency()
{
	SPCR =	(0<<SPIE) | /* SPI Interrupt Enable */
    24bc:	80 e5       	ldi	r24, 0x50	; 80
    24be:	8d b9       	out	0x0d, r24	; 13
			(1<<MSTR) | /* Master mode */
			(0<<CPOL) | /* Clock Polarity: SCK low when idle */
			(0<<CPHA) | /* Clock Phase: sample on rising SCK edge */
			(0<<SPR1) | /* Clock Frequency: f_OSC / 4 */
			(0<<SPR0);
	SPSR |= (1<<SPI2X); /* Doubled Clock Frequency: f_OSC / 2 */
    24c0:	70 9a       	sbi	0x0e, 0	; 14
    24c2:	08 95       	ret

000024c4 <spi_send_byte>:
 *
 * \param[in] b The byte to send.
 */
void spi_send_byte(uint8_t b)
{
	SPDR = b;
    24c4:	8f b9       	out	0x0f, r24	; 15
	/* wait for byte to be shifted out */
	while(!(SPSR & (1 << SPIF)));
    24c6:	77 9b       	sbis	0x0e, 7	; 14
    24c8:	fe cf       	rjmp	.-4      	; 0x24c6 <spi_send_byte+0x2>
}
    24ca:	08 95       	ret

000024cc <spi_rec_byte>:
 * \returns The received byte.
 */
uint8_t spi_rec_byte()
{
	/* send dummy data for receiving some */
	SPDR = 0xff;
    24cc:	8f ef       	ldi	r24, 0xFF	; 255
    24ce:	8f b9       	out	0x0f, r24	; 15
	while(!(SPSR & (1 << SPIF)));
    24d0:	77 9b       	sbis	0x0e, 7	; 14
    24d2:	fe cf       	rjmp	.-4      	; 0x24d0 <spi_rec_byte+0x4>

	return SPDR;
    24d4:	8f b1       	in	r24, 0x0f	; 15
}
    24d6:	08 95       	ret

000024d8 <spi_send_data>:
 *
 * \param[in] data A pointer to the buffer which contains the data to send.
 * \param[in] data_len The number of bytes to send.
 */
void spi_send_data(const uint8_t* data, uint16_t data_len)
{
    24d8:	fc 01       	movw	r30, r24
	do {
		uint8_t b = *data++;
    24da:	81 91       	ld	r24, Z+
		while( !(SPSR & (1 << SPIF)) );
    24dc:	77 9b       	sbis	0x0e, 7	; 14
    24de:	fe cf       	rjmp	.-4      	; 0x24dc <spi_send_data+0x4>
		SPDR = b;
    24e0:	8f b9       	out	0x0f, r24	; 15
	} while( --data_len );
    24e2:	61 50       	subi	r22, 0x01	; 1
    24e4:	70 40       	sbci	r23, 0x00	; 0
    24e6:	c9 f7       	brne	.-14     	; 0x24da <spi_send_data+0x2>

	while( !(SPSR & (1 << SPIF)) );
    24e8:	77 9b       	sbis	0x0e, 7	; 14
    24ea:	fe cf       	rjmp	.-4      	; 0x24e8 <spi_send_data+0x10>
}
    24ec:	08 95       	ret

000024ee <spi_rec_data>:
 *
 * \param[out] buffer A pointer to the buffer into which the data gets written.
 * \param[in] buffer_len The number of bytes to read.
 */
void spi_rec_data(uint8_t* buffer, uint16_t buffer_len)
{
    24ee:	fc 01       	movw	r30, r24
	--buffer;
	do {
		SPDR = 0xff;
    24f0:	9f ef       	ldi	r25, 0xFF	; 255
    24f2:	9f b9       	out	0x0f, r25	; 15
		++buffer;
		while( !(SPSR & (1 << SPIF)) );
    24f4:	77 9b       	sbis	0x0e, 7	; 14
    24f6:	fe cf       	rjmp	.-4      	; 0x24f4 <spi_rec_data+0x6>
		*buffer = SPDR;
    24f8:	8f b1       	in	r24, 0x0f	; 15
    24fa:	81 93       	st	Z+, r24
	} while( --buffer_len );
    24fc:	61 50       	subi	r22, 0x01	; 1
    24fe:	70 40       	sbci	r23, 0x00	; 0
    2500:	c1 f7       	brne	.-16     	; 0x24f2 <spi_rec_data+0x4>
}
    2502:	08 95       	ret

00002504 <spi_low_frequency>:
/**
 * Switches to the lowest SPI frequency possible.
 */
void spi_low_frequency()
{
	SPCR =	(0<<SPIE) | /* SPI Interrupt Enable */
    2504:	83 e5       	ldi	r24, 0x53	; 83
    2506:	8d b9       	out	0x0d, r24	; 13
			(1<<MSTR) | /* Master mode */
			(0<<CPOL) | /* Clock Polarity: SCK low when idle */
			(0<<CPHA) | /* Clock Phase: sample on rising SCK edge */
			(1<<SPR1) | /* Clock Frequency: f_OSC / 128 */
			(1<<SPR0);
	SPSR &= ~(1<<SPI2X); /* No Doubled Clock Frequency */
    2508:	70 98       	cbi	0x0e, 0	; 14
}
    250a:	08 95       	ret

0000250c <spi_high_frequency>:
/**
 * Switches to the highest SPI frequency possible.
 */
void spi_high_frequency()
{
	SPCR =	(0<<SPIE) | /* SPI Interrupt Enable */
    250c:	80 e5       	ldi	r24, 0x50	; 80
    250e:	8d b9       	out	0x0d, r24	; 13
			(1<<MSTR) | /* Master mode */
			(0<<CPOL) | /* Clock Polarity: SCK low when idle */
			(0<<CPHA) | /* Clock Phase: sample on rising SCK edge */
			(0<<SPR1) | /* Clock Frequency: f_OSC / 4 */
			(0<<SPR0);
	SPSR |= (1<<SPI2X); /* Doubled Clock Frequency: f_OSC / 2 */
    2510:	70 9a       	sbi	0x0e, 0	; 14
}
    2512:	08 95       	ret

00002514 <check_crc16>:
}

///////////////////////////////////////////////////////////////////////////////////////////////////////////////////////////////////////////////////////////////

uint8_t check_crc16( uint8_t *buffer, uint8_t len )
{
    2514:	ef 92       	push	r14
    2516:	ff 92       	push	r15
    2518:	0f 93       	push	r16
    251a:	1f 93       	push	r17
    251c:	7c 01       	movw	r14, r24
    251e:	06 2f       	mov	r16, r22
	uint16_t check_sum;

	check_sum = usMBCRC16( buffer, len );
    2520:	10 e0       	ldi	r17, 0x00	; 0
    2522:	b8 01       	movw	r22, r16
    2524:	0e 94 80 0d 	call	0x1b00	; 0x1b00 <usMBCRC16>
    2528:	bc 01       	movw	r22, r24

	if( ( ( 0xff & check_sum>>0 ) == buffer[ len + 0 ] ) &&
    252a:	9c 01       	movw	r18, r24
    252c:	30 70       	andi	r19, 0x00	; 0
    252e:	f7 01       	movw	r30, r14
    2530:	e0 0f       	add	r30, r16
    2532:	f1 1f       	adc	r31, r17
    2534:	80 81       	ld	r24, Z
    2536:	90 e0       	ldi	r25, 0x00	; 0
    2538:	28 17       	cp	r18, r24
    253a:	39 07       	cpc	r19, r25
    253c:	11 f0       	breq	.+4      	; 0x2542 <check_crc16+0x2e>
    253e:	40 e0       	ldi	r20, 0x00	; 0
    2540:	09 c0       	rjmp	.+18     	; 0x2554 <check_crc16+0x40>
    2542:	40 e0       	ldi	r20, 0x00	; 0
    2544:	27 2f       	mov	r18, r23
    2546:	33 27       	eor	r19, r19
    2548:	81 81       	ldd	r24, Z+1	; 0x01
    254a:	90 e0       	ldi	r25, 0x00	; 0
    254c:	28 17       	cp	r18, r24
    254e:	39 07       	cpc	r19, r25
    2550:	09 f4       	brne	.+2      	; 0x2554 <check_crc16+0x40>
    2552:	41 e0       	ldi	r20, 0x01	; 1
	) {
		return 1;
	}

	return 0;
}
    2554:	84 2f       	mov	r24, r20
    2556:	1f 91       	pop	r17
    2558:	0f 91       	pop	r16
    255a:	ff 90       	pop	r15
    255c:	ef 90       	pop	r14
    255e:	08 95       	ret

00002560 <mbCheckExceptionForResponse>:

	rs485SendBuffer( txBuffer, len );
}

uint8_t mbCheckExceptionForResponse( uint8_t *lpExceptionCode, uint8_t txFunctionCode, uint8_t *rxBuffer, uint8_t len )
{
    2560:	0f 93       	push	r16
    2562:	1f 93       	push	r17
    2564:	cf 93       	push	r28
    2566:	df 93       	push	r29
    2568:	8c 01       	movw	r16, r24
    256a:	ea 01       	movw	r28, r20
	if( ( 0x80 + txFunctionCode ) == rxBuffer[1] ) {
    256c:	70 e0       	ldi	r23, 0x00	; 0
    256e:	60 58       	subi	r22, 0x80	; 128
    2570:	7f 4f       	sbci	r23, 0xFF	; 255
    2572:	89 81       	ldd	r24, Y+1	; 0x01
    2574:	90 e0       	ldi	r25, 0x00	; 0
    2576:	68 17       	cp	r22, r24
    2578:	79 07       	cpc	r23, r25
    257a:	d9 f4       	brne	.+54     	; 0x25b2 <mbCheckExceptionForResponse+0x52>
		if( 5 == len ) {
    257c:	25 30       	cpi	r18, 0x05	; 5
    257e:	c9 f4       	brne	.+50     	; 0x25b2 <mbCheckExceptionForResponse+0x52>
			uint16_t check_sum;

			check_sum = usMBCRC16( rxBuffer, 3 );
    2580:	ca 01       	movw	r24, r20
    2582:	63 e0       	ldi	r22, 0x03	; 3
    2584:	70 e0       	ldi	r23, 0x00	; 0
    2586:	0e 94 80 0d 	call	0x1b00	; 0x1b00 <usMBCRC16>
    258a:	ac 01       	movw	r20, r24

			if( ( ( 0xff & check_sum>>0 ) == rxBuffer[3] ) &&
    258c:	9c 01       	movw	r18, r24
    258e:	30 70       	andi	r19, 0x00	; 0
    2590:	8b 81       	ldd	r24, Y+3	; 0x03
    2592:	90 e0       	ldi	r25, 0x00	; 0
    2594:	28 17       	cp	r18, r24
    2596:	39 07       	cpc	r19, r25
    2598:	61 f4       	brne	.+24     	; 0x25b2 <mbCheckExceptionForResponse+0x52>
    259a:	25 2f       	mov	r18, r21
    259c:	33 27       	eor	r19, r19
    259e:	8c 81       	ldd	r24, Y+4	; 0x04
    25a0:	90 e0       	ldi	r25, 0x00	; 0
    25a2:	28 17       	cp	r18, r24
    25a4:	39 07       	cpc	r19, r25
    25a6:	29 f4       	brne	.+10     	; 0x25b2 <mbCheckExceptionForResponse+0x52>
				( ( 0xff & check_sum>>8 ) == rxBuffer[4] )
			) {
				*lpExceptionCode = rxBuffer[2];
    25a8:	8a 81       	ldd	r24, Y+2	; 0x02
    25aa:	f8 01       	movw	r30, r16
    25ac:	80 83       	st	Z, r24
    25ae:	81 e0       	ldi	r24, 0x01	; 1
    25b0:	01 c0       	rjmp	.+2      	; 0x25b4 <mbCheckExceptionForResponse+0x54>
				return 1;
    25b2:	80 e0       	ldi	r24, 0x00	; 0
			}
		}
	}

	return 0;
}
    25b4:	df 91       	pop	r29
    25b6:	cf 91       	pop	r28
    25b8:	1f 91       	pop	r17
    25ba:	0f 91       	pop	r16
    25bc:	08 95       	ret

000025be <mbReceiveRequestForceMultipleCoils>:

	mbRtuAddCrcAndSendBuffer( txBuffer, 9 + byte_number );
}

uint8_t mbReceiveRequestForceMultipleCoils( uint8_t *rxBuffer, uint8_t len, void *lpObject )
{
    25be:	cf 93       	push	r28
    25c0:	df 93       	push	r29
    25c2:	fc 01       	movw	r30, r24
    25c4:	26 2f       	mov	r18, r22
	LP_MB_MASTER_RW_COILS lpData = (LP_MB_MASTER_RW_COILS)lpObject;
    25c6:	ea 01       	movw	r28, r20

	if( rxBuffer[0] == lpData->address ) {
    25c8:	90 81       	ld	r25, Z
    25ca:	89 81       	ldd	r24, Y+1	; 0x01
    25cc:	98 17       	cp	r25, r24
    25ce:	a1 f4       	brne	.+40     	; 0x25f8 <mbReceiveRequestForceMultipleCoils+0x3a>
		
		if( 15 == rxBuffer[1] ) {
    25d0:	81 81       	ldd	r24, Z+1	; 0x01
    25d2:	8f 30       	cpi	r24, 0x0F	; 15
    25d4:	59 f4       	brne	.+22     	; 0x25ec <mbReceiveRequestForceMultipleCoils+0x2e>
			if( 8 == len &&
    25d6:	68 30       	cpi	r22, 0x08	; 8
    25d8:	79 f4       	brne	.+30     	; 0x25f8 <mbReceiveRequestForceMultipleCoils+0x3a>
    25da:	cf 01       	movw	r24, r30
    25dc:	66 e0       	ldi	r22, 0x06	; 6
    25de:	0e 94 8a 12 	call	0x2514	; 0x2514 <check_crc16>
    25e2:	88 23       	and	r24, r24
    25e4:	49 f0       	breq	.+18     	; 0x25f8 <mbReceiveRequestForceMultipleCoils+0x3a>
				uint16_t coils_address, coils_number;

				coils_address = rxBuffer[2]<<8 | rxBuffer[3];
				coils_number = rxBuffer[4]<<8 | rxBuffer[5];

				lpData->exception_code = 0;
    25e6:	18 82       	st	Y, r1
    25e8:	81 e0       	ldi	r24, 0x01	; 1
    25ea:	07 c0       	rjmp	.+14     	; 0x25fa <mbReceiveRequestForceMultipleCoils+0x3c>
			}

			return 0;
		}

		return mbCheckExceptionForResponse( &lpData->exception_code, 15, rxBuffer, len );
    25ec:	ca 01       	movw	r24, r20
    25ee:	6f e0       	ldi	r22, 0x0F	; 15
    25f0:	af 01       	movw	r20, r30
    25f2:	0e 94 b0 12 	call	0x2560	; 0x2560 <mbCheckExceptionForResponse>
    25f6:	01 c0       	rjmp	.+2      	; 0x25fa <mbReceiveRequestForceMultipleCoils+0x3c>
    25f8:	80 e0       	ldi	r24, 0x00	; 0
	}

	return 0;
}
    25fa:	df 91       	pop	r29
    25fc:	cf 91       	pop	r28
    25fe:	08 95       	ret

00002600 <mbReceiveRequestPresetSingleRegister>:

	mbRtuAddCrcAndSendBuffer( txBuffer, 8 );
}

uint8_t mbReceiveRequestPresetSingleRegister( uint8_t *rxBuffer, uint8_t len, void *lpObject )
{
    2600:	0f 93       	push	r16
    2602:	1f 93       	push	r17
    2604:	cf 93       	push	r28
    2606:	df 93       	push	r29
    2608:	8c 01       	movw	r16, r24
    260a:	26 2f       	mov	r18, r22
	LP_MB_MASTER_PRESET_SINGLE_REGISTER lpData = (LP_MB_MASTER_PRESET_SINGLE_REGISTER)lpObject;
    260c:	ea 01       	movw	r28, r20

	if( rxBuffer[0] == lpData->address ) {
    260e:	dc 01       	movw	r26, r24
    2610:	9c 91       	ld	r25, X
    2612:	89 81       	ldd	r24, Y+1	; 0x01
    2614:	98 17       	cp	r25, r24
    2616:	a1 f5       	brne	.+104    	; 0x2680 <mbReceiveRequestPresetSingleRegister+0x80>

		if( 6 == rxBuffer[1] ) {
    2618:	11 96       	adiw	r26, 0x01	; 1
    261a:	8c 91       	ld	r24, X
    261c:	86 30       	cpi	r24, 0x06	; 6
    261e:	51 f5       	brne	.+84     	; 0x2674 <mbReceiveRequestPresetSingleRegister+0x74>
			if( 8 == len &&
    2620:	68 30       	cpi	r22, 0x08	; 8
    2622:	71 f5       	brne	.+92     	; 0x2680 <mbReceiveRequestPresetSingleRegister+0x80>
    2624:	c8 01       	movw	r24, r16
    2626:	66 e0       	ldi	r22, 0x06	; 6
    2628:	0e 94 8a 12 	call	0x2514	; 0x2514 <check_crc16>
    262c:	88 23       	and	r24, r24
    262e:	41 f1       	breq	.+80     	; 0x2680 <mbReceiveRequestPresetSingleRegister+0x80>
				check_crc16( rxBuffer, 6 )
			) {
				if( rxBuffer[2] == lpData->register_address>>8	&&
    2630:	4a 81       	ldd	r20, Y+2	; 0x02
    2632:	5b 81       	ldd	r21, Y+3	; 0x03
    2634:	f8 01       	movw	r30, r16
    2636:	82 81       	ldd	r24, Z+2	; 0x02
    2638:	90 e0       	ldi	r25, 0x00	; 0
    263a:	25 2f       	mov	r18, r21
    263c:	33 27       	eor	r19, r19
    263e:	82 17       	cp	r24, r18
    2640:	93 07       	cpc	r25, r19
    2642:	f1 f4       	brne	.+60     	; 0x2680 <mbReceiveRequestPresetSingleRegister+0x80>
    2644:	83 81       	ldd	r24, Z+3	; 0x03
    2646:	90 e0       	ldi	r25, 0x00	; 0
    2648:	84 17       	cp	r24, r20
    264a:	95 07       	cpc	r25, r21
    264c:	c9 f4       	brne	.+50     	; 0x2680 <mbReceiveRequestPresetSingleRegister+0x80>
					rxBuffer[3] == lpData->register_address
				) {
					if( NULL != lpData->lpRegisterNew ) {
    264e:	ee 81       	ldd	r30, Y+6	; 0x06
    2650:	ff 81       	ldd	r31, Y+7	; 0x07
    2652:	30 97       	sbiw	r30, 0x00	; 0
    2654:	61 f0       	breq	.+24     	; 0x266e <mbReceiveRequestPresetSingleRegister+0x6e>
						*lpData->lpRegisterNew = ( rxBuffer[4]<<8 ) | rxBuffer[5];
    2656:	d8 01       	movw	r26, r16
    2658:	14 96       	adiw	r26, 0x04	; 4
    265a:	9c 91       	ld	r25, X
    265c:	14 97       	sbiw	r26, 0x04	; 4
    265e:	80 e0       	ldi	r24, 0x00	; 0
    2660:	15 96       	adiw	r26, 0x05	; 5
    2662:	2c 91       	ld	r18, X
    2664:	30 e0       	ldi	r19, 0x00	; 0
    2666:	82 2b       	or	r24, r18
    2668:	93 2b       	or	r25, r19
    266a:	91 83       	std	Z+1, r25	; 0x01
    266c:	80 83       	st	Z, r24
					}

					lpData->exception_code = 0;
    266e:	18 82       	st	Y, r1
    2670:	81 e0       	ldi	r24, 0x01	; 1
    2672:	07 c0       	rjmp	.+14     	; 0x2682 <mbReceiveRequestPresetSingleRegister+0x82>
			}

			return 0;
		}
		
		return mbCheckExceptionForResponse( &lpData->exception_code, 6, rxBuffer, len );
    2674:	ca 01       	movw	r24, r20
    2676:	66 e0       	ldi	r22, 0x06	; 6
    2678:	a8 01       	movw	r20, r16
    267a:	0e 94 b0 12 	call	0x2560	; 0x2560 <mbCheckExceptionForResponse>
    267e:	01 c0       	rjmp	.+2      	; 0x2682 <mbReceiveRequestPresetSingleRegister+0x82>
    2680:	80 e0       	ldi	r24, 0x00	; 0
	}

	return 0;
}
    2682:	df 91       	pop	r29
    2684:	cf 91       	pop	r28
    2686:	1f 91       	pop	r17
    2688:	0f 91       	pop	r16
    268a:	08 95       	ret

0000268c <mbReceiveRequestForceSingleCoil>:

	mbRtuAddCrcAndSendBuffer( txBuffer, 8 );
}

uint8_t mbReceiveRequestForceSingleCoil( uint8_t *rxBuffer, uint8_t len, void *lpObject )
{
    268c:	0f 93       	push	r16
    268e:	1f 93       	push	r17
    2690:	cf 93       	push	r28
    2692:	df 93       	push	r29
    2694:	8c 01       	movw	r16, r24
    2696:	26 2f       	mov	r18, r22
	LP_MB_MASTER_WRITE_SINGLE_COIL lpData = (LP_MB_MASTER_WRITE_SINGLE_COIL)lpObject;
    2698:	ea 01       	movw	r28, r20

	if( rxBuffer[0] == lpData->address ) {
    269a:	dc 01       	movw	r26, r24
    269c:	9c 91       	ld	r25, X
    269e:	89 81       	ldd	r24, Y+1	; 0x01
    26a0:	98 17       	cp	r25, r24
    26a2:	91 f5       	brne	.+100    	; 0x2708 <mbReceiveRequestForceSingleCoil+0x7c>

		if( 5 == rxBuffer[1] ) {
    26a4:	11 96       	adiw	r26, 0x01	; 1
    26a6:	8c 91       	ld	r24, X
    26a8:	85 30       	cpi	r24, 0x05	; 5
    26aa:	41 f5       	brne	.+80     	; 0x26fc <mbReceiveRequestForceSingleCoil+0x70>
			if( 8 == len &&
    26ac:	68 30       	cpi	r22, 0x08	; 8
    26ae:	61 f5       	brne	.+88     	; 0x2708 <mbReceiveRequestForceSingleCoil+0x7c>
    26b0:	c8 01       	movw	r24, r16
    26b2:	66 e0       	ldi	r22, 0x06	; 6
    26b4:	0e 94 8a 12 	call	0x2514	; 0x2514 <check_crc16>
    26b8:	88 23       	and	r24, r24
    26ba:	31 f1       	breq	.+76     	; 0x2708 <mbReceiveRequestForceSingleCoil+0x7c>
				check_crc16( rxBuffer, 6 )
			) {
				if( rxBuffer[2] == lpData->coil_address>>8	&&
    26bc:	9e 81       	ldd	r25, Y+6	; 0x06
    26be:	f8 01       	movw	r30, r16
    26c0:	82 81       	ldd	r24, Z+2	; 0x02
    26c2:	88 23       	and	r24, r24
    26c4:	09 f5       	brne	.+66     	; 0x2708 <mbReceiveRequestForceSingleCoil+0x7c>
    26c6:	83 81       	ldd	r24, Z+3	; 0x03
    26c8:	89 17       	cp	r24, r25
    26ca:	f1 f4       	brne	.+60     	; 0x2708 <mbReceiveRequestForceSingleCoil+0x7c>
    26cc:	85 81       	ldd	r24, Z+5	; 0x05
    26ce:	88 23       	and	r24, r24
    26d0:	d9 f4       	brne	.+54     	; 0x2708 <mbReceiveRequestForceSingleCoil+0x7c>
					rxBuffer[3] == lpData->coil_address		&&
					rxBuffer[5] == 0
				) {
					if( NULL != lpData->lpCoilNew ) {
    26d2:	ec 81       	ldd	r30, Y+4	; 0x04
    26d4:	fd 81       	ldd	r31, Y+5	; 0x05
    26d6:	30 97       	sbiw	r30, 0x00	; 0
    26d8:	71 f0       	breq	.+28     	; 0x26f6 <mbReceiveRequestForceSingleCoil+0x6a>
						if( 0xff == rxBuffer[4] ) {
    26da:	d8 01       	movw	r26, r16
    26dc:	14 96       	adiw	r26, 0x04	; 4
    26de:	8c 91       	ld	r24, X
    26e0:	8f 3f       	cpi	r24, 0xFF	; 255
    26e2:	11 f4       	brne	.+4      	; 0x26e8 <mbReceiveRequestForceSingleCoil+0x5c>
							*lpData->lpCoilNew = 1;
    26e4:	81 e0       	ldi	r24, 0x01	; 1
    26e6:	80 83       	st	Z, r24
						}

						if( 0x00 == rxBuffer[4] ) {
    26e8:	f8 01       	movw	r30, r16
    26ea:	84 81       	ldd	r24, Z+4	; 0x04
    26ec:	88 23       	and	r24, r24
    26ee:	19 f4       	brne	.+6      	; 0x26f6 <mbReceiveRequestForceSingleCoil+0x6a>
							*lpData->lpCoilNew = 0;
    26f0:	ec 81       	ldd	r30, Y+4	; 0x04
    26f2:	fd 81       	ldd	r31, Y+5	; 0x05
    26f4:	10 82       	st	Z, r1
						}
					}

					lpData->exception_code = 0;
    26f6:	18 82       	st	Y, r1
    26f8:	81 e0       	ldi	r24, 0x01	; 1
    26fa:	07 c0       	rjmp	.+14     	; 0x270a <mbReceiveRequestForceSingleCoil+0x7e>
			}

			return 0;
		}
		
		return mbCheckExceptionForResponse( &lpData->exception_code, 5, rxBuffer, len );
    26fc:	ca 01       	movw	r24, r20
    26fe:	65 e0       	ldi	r22, 0x05	; 5
    2700:	a8 01       	movw	r20, r16
    2702:	0e 94 b0 12 	call	0x2560	; 0x2560 <mbCheckExceptionForResponse>
    2706:	01 c0       	rjmp	.+2      	; 0x270a <mbReceiveRequestForceSingleCoil+0x7e>
    2708:	80 e0       	ldi	r24, 0x00	; 0
	}

	return 0;
}
    270a:	df 91       	pop	r29
    270c:	cf 91       	pop	r28
    270e:	1f 91       	pop	r17
    2710:	0f 91       	pop	r16
    2712:	08 95       	ret

00002714 <mbReceiveRequestReadInputStatus>:

	mbRtuAddCrcAndSendBuffer( txBuffer, 8 );
}

uint8_t mbReceiveRequestReadInputStatus( uint8_t *rxBuffer, uint8_t len, void *lpObject )
{
    2714:	0f 93       	push	r16
    2716:	1f 93       	push	r17
    2718:	cf 93       	push	r28
    271a:	df 93       	push	r29
    271c:	8c 01       	movw	r16, r24
    271e:	26 2f       	mov	r18, r22
	LP_MB_MASTER_READ_INPUT_STATUS lpData = (LP_MB_MASTER_READ_INPUT_STATUS)lpObject;
    2720:	ea 01       	movw	r28, r20

	if( rxBuffer[0] == lpData->address ) {
    2722:	fc 01       	movw	r30, r24
    2724:	90 81       	ld	r25, Z
    2726:	89 81       	ldd	r24, Y+1	; 0x01
    2728:	98 17       	cp	r25, r24
    272a:	79 f5       	brne	.+94     	; 0x278a <mbReceiveRequestReadInputStatus+0x76>

		if( 2 == rxBuffer[1] ) {
    272c:	81 81       	ldd	r24, Z+1	; 0x01
    272e:	82 30       	cpi	r24, 0x02	; 2
    2730:	31 f5       	brne	.+76     	; 0x277e <mbReceiveRequestReadInputStatus+0x6a>
			if( len == 5 + lpData->byte_number &&
    2732:	4f 81       	ldd	r20, Y+7	; 0x07
    2734:	30 e0       	ldi	r19, 0x00	; 0
    2736:	84 2f       	mov	r24, r20
    2738:	90 e0       	ldi	r25, 0x00	; 0
    273a:	05 96       	adiw	r24, 0x05	; 5
    273c:	28 17       	cp	r18, r24
    273e:	39 07       	cpc	r19, r25
    2740:	21 f5       	brne	.+72     	; 0x278a <mbReceiveRequestReadInputStatus+0x76>
    2742:	4d 5f       	subi	r20, 0xFD	; 253
    2744:	c8 01       	movw	r24, r16
    2746:	64 2f       	mov	r22, r20
    2748:	0e 94 8a 12 	call	0x2514	; 0x2514 <check_crc16>
    274c:	88 23       	and	r24, r24
    274e:	e9 f0       	breq	.+58     	; 0x278a <mbReceiveRequestReadInputStatus+0x76>
				check_crc16( rxBuffer, 3 + lpData->byte_number )
			) {
				if( NULL != lpData->lpInputs ) {
    2750:	8a 81       	ldd	r24, Y+2	; 0x02
    2752:	9b 81       	ldd	r25, Y+3	; 0x03
    2754:	89 2b       	or	r24, r25
    2756:	81 f0       	breq	.+32     	; 0x2778 <mbReceiveRequestReadInputStatus+0x64>
    2758:	90 e0       	ldi	r25, 0x00	; 0
    275a:	0b c0       	rjmp	.+22     	; 0x2772 <mbReceiveRequestReadInputStatus+0x5e>
					uint8_t i;

					for( i = 0; i < lpData->byte_number; i++ ) {
						lpData->lpInputs[ i ] = rxBuffer[ 3 + i ];
    275c:	e9 2f       	mov	r30, r25
    275e:	f0 e0       	ldi	r31, 0x00	; 0
    2760:	aa 81       	ldd	r26, Y+2	; 0x02
    2762:	bb 81       	ldd	r27, Y+3	; 0x03
    2764:	ae 0f       	add	r26, r30
    2766:	bf 1f       	adc	r27, r31
    2768:	e0 0f       	add	r30, r16
    276a:	f1 1f       	adc	r31, r17
    276c:	83 81       	ldd	r24, Z+3	; 0x03
    276e:	8c 93       	st	X, r24
				check_crc16( rxBuffer, 3 + lpData->byte_number )
			) {
				if( NULL != lpData->lpInputs ) {
					uint8_t i;

					for( i = 0; i < lpData->byte_number; i++ ) {
    2770:	9f 5f       	subi	r25, 0xFF	; 255
    2772:	8f 81       	ldd	r24, Y+7	; 0x07
    2774:	98 17       	cp	r25, r24
    2776:	90 f3       	brcs	.-28     	; 0x275c <mbReceiveRequestReadInputStatus+0x48>
						lpData->lpInputs[ i ] = rxBuffer[ 3 + i ];
					}
				}

				lpData->exception_code = 0;
    2778:	18 82       	st	Y, r1
    277a:	81 e0       	ldi	r24, 0x01	; 1
    277c:	07 c0       	rjmp	.+14     	; 0x278c <mbReceiveRequestReadInputStatus+0x78>
			}

			return 0;
		}

		return mbCheckExceptionForResponse( &lpData->exception_code, 2, rxBuffer, len );
    277e:	ca 01       	movw	r24, r20
    2780:	62 e0       	ldi	r22, 0x02	; 2
    2782:	a8 01       	movw	r20, r16
    2784:	0e 94 b0 12 	call	0x2560	; 0x2560 <mbCheckExceptionForResponse>
    2788:	01 c0       	rjmp	.+2      	; 0x278c <mbReceiveRequestReadInputStatus+0x78>
    278a:	80 e0       	ldi	r24, 0x00	; 0
	}

	return 0;
}
    278c:	df 91       	pop	r29
    278e:	cf 91       	pop	r28
    2790:	1f 91       	pop	r17
    2792:	0f 91       	pop	r16
    2794:	08 95       	ret

00002796 <mbRtuAddCrcAndSendBuffer>:
}

///////////////////////////////////////////////////////////////////////////////////////////////////////////////////////////////////////////////////////////////

void mbRtuAddCrcAndSendBuffer( uint8_t *txBuffer, uint16_t len )
{
    2796:	ef 92       	push	r14
    2798:	ff 92       	push	r15
    279a:	0f 93       	push	r16
    279c:	1f 93       	push	r17
    279e:	8c 01       	movw	r16, r24
    27a0:	7b 01       	movw	r14, r22
	uint16_t check_sum = usMBCRC16( txBuffer, len - 2 );
    27a2:	62 50       	subi	r22, 0x02	; 2
    27a4:	70 40       	sbci	r23, 0x00	; 0
    27a6:	0e 94 80 0d 	call	0x1b00	; 0x1b00 <usMBCRC16>

	txBuffer[ len - 2 ] = check_sum;
    27aa:	f8 01       	movw	r30, r16
    27ac:	ee 0d       	add	r30, r14
    27ae:	ff 1d       	adc	r31, r15
    27b0:	32 97       	sbiw	r30, 0x02	; 2
    27b2:	81 93       	st	Z+, r24
	txBuffer[ len - 1 ] = check_sum>>8;
    27b4:	90 83       	st	Z, r25

	rs485SendBuffer( txBuffer, len );
    27b6:	c8 01       	movw	r24, r16
    27b8:	6e 2d       	mov	r22, r14
    27ba:	0e 94 38 18 	call	0x3070	; 0x3070 <rs485SendBuffer>
}
    27be:	1f 91       	pop	r17
    27c0:	0f 91       	pop	r16
    27c2:	ff 90       	pop	r15
    27c4:	ef 90       	pop	r14
    27c6:	08 95       	ret

000027c8 <mbSendRequestForceMultipleCoils>:

///////////////////////////////////////////////////////////////////////////////////////////////////////////////////////////////////////////////////////////////
// Force Multiple Coils (FC=15)

void mbSendRequestForceMultipleCoils( void *lpObject )
{
    27c8:	df 93       	push	r29
    27ca:	cf 93       	push	r28
    27cc:	cd b7       	in	r28, 0x3d	; 61
    27ce:	de b7       	in	r29, 0x3e	; 62
    27d0:	c4 50       	subi	r28, 0x04	; 4
    27d2:	d1 40       	sbci	r29, 0x01	; 1
    27d4:	0f b6       	in	r0, 0x3f	; 63
    27d6:	f8 94       	cli
    27d8:	de bf       	out	0x3e, r29	; 62
    27da:	0f be       	out	0x3f, r0	; 63
    27dc:	cd bf       	out	0x3d, r28	; 61
	LP_MB_MASTER_RW_COILS lpData = (LP_MB_MASTER_RW_COILS)lpObject;
    27de:	dc 01       	movw	r26, r24
	uint8_t txBuffer[260] = { 0 };
    27e0:	ae 01       	movw	r20, r28
    27e2:	4f 5f       	subi	r20, 0xFF	; 255
    27e4:	5f 4f       	sbci	r21, 0xFF	; 255
    27e6:	84 e0       	ldi	r24, 0x04	; 4
    27e8:	91 e0       	ldi	r25, 0x01	; 1
    27ea:	fa 01       	movw	r30, r20
    27ec:	9c 01       	movw	r18, r24
    27ee:	11 92       	st	Z+, r1
    27f0:	21 50       	subi	r18, 0x01	; 1
    27f2:	30 40       	sbci	r19, 0x00	; 0
    27f4:	e1 f7       	brne	.-8      	; 0x27ee <mbSendRequestForceMultipleCoils+0x26>
	uint8_t i, byte_number;

	lpData->exception_code = 0;
    27f6:	1c 92       	st	X, r1

	txBuffer[0] = lpData->address;
    27f8:	11 96       	adiw	r26, 0x01	; 1
    27fa:	8c 91       	ld	r24, X
    27fc:	11 97       	sbiw	r26, 0x01	; 1
    27fe:	89 83       	std	Y+1, r24	; 0x01
	txBuffer[1] = 15;
    2800:	8f e0       	ldi	r24, 0x0F	; 15
    2802:	8a 83       	std	Y+2, r24	; 0x02

	txBuffer[2] = lpData->coils_address>>8;
    2804:	1b 82       	std	Y+3, r1	; 0x03
	txBuffer[3] = lpData->coils_address;
    2806:	14 96       	adiw	r26, 0x04	; 4
    2808:	8c 91       	ld	r24, X
    280a:	14 97       	sbiw	r26, 0x04	; 4
    280c:	8c 83       	std	Y+4, r24	; 0x04

	txBuffer[4] = lpData->coils_number>>8;
    280e:	16 96       	adiw	r26, 0x06	; 6
    2810:	8c 91       	ld	r24, X
    2812:	16 97       	sbiw	r26, 0x06	; 6
    2814:	8d 83       	std	Y+5, r24	; 0x05
	txBuffer[5] = lpData->coils_number;
    2816:	15 96       	adiw	r26, 0x05	; 5
    2818:	8c 91       	ld	r24, X
    281a:	15 97       	sbiw	r26, 0x05	; 5
    281c:	8e 83       	std	Y+6, r24	; 0x06

	byte_number = lpData->coils_number / 8;
    281e:	15 96       	adiw	r26, 0x05	; 5
    2820:	2d 91       	ld	r18, X+
    2822:	3c 91       	ld	r19, X
    2824:	16 97       	sbiw	r26, 0x06	; 6
    2826:	c9 01       	movw	r24, r18
    2828:	53 e0       	ldi	r21, 0x03	; 3
    282a:	96 95       	lsr	r25
    282c:	87 95       	ror	r24
    282e:	5a 95       	dec	r21
    2830:	e1 f7       	brne	.-8      	; 0x282a <mbSendRequestForceMultipleCoils+0x62>
    2832:	68 2f       	mov	r22, r24
	if( 8 * byte_number < lpData->coils_number ) {
    2834:	90 e0       	ldi	r25, 0x00	; 0
    2836:	43 e0       	ldi	r20, 0x03	; 3
    2838:	88 0f       	add	r24, r24
    283a:	99 1f       	adc	r25, r25
    283c:	4a 95       	dec	r20
    283e:	e1 f7       	brne	.-8      	; 0x2838 <mbSendRequestForceMultipleCoils+0x70>
    2840:	82 17       	cp	r24, r18
    2842:	93 07       	cpc	r25, r19
    2844:	08 f4       	brcc	.+2      	; 0x2848 <mbSendRequestForceMultipleCoils+0x80>
		++byte_number;
    2846:	6f 5f       	subi	r22, 0xFF	; 255
	}

	txBuffer[6] = byte_number;
    2848:	6f 83       	std	Y+7, r22	; 0x07
    284a:	ae 01       	movw	r20, r28
    284c:	48 5f       	subi	r20, 0xF8	; 248
    284e:	5f 4f       	sbci	r21, 0xFF	; 255
    2850:	20 e0       	ldi	r18, 0x00	; 0
    2852:	30 e0       	ldi	r19, 0x00	; 0
    2854:	0c c0       	rjmp	.+24     	; 0x286e <mbSendRequestForceMultipleCoils+0xa6>
	for( i = 0; i < byte_number; i++ ) {
		txBuffer[ i + 7 ] = lpData->lpCoils[i];
    2856:	12 96       	adiw	r26, 0x02	; 2
    2858:	ed 91       	ld	r30, X+
    285a:	fc 91       	ld	r31, X
    285c:	13 97       	sbiw	r26, 0x03	; 3
    285e:	e2 0f       	add	r30, r18
    2860:	f3 1f       	adc	r31, r19
    2862:	80 81       	ld	r24, Z
    2864:	fa 01       	movw	r30, r20
    2866:	81 93       	st	Z+, r24
    2868:	af 01       	movw	r20, r30
    286a:	2f 5f       	subi	r18, 0xFF	; 255
    286c:	3f 4f       	sbci	r19, 0xFF	; 255
	if( 8 * byte_number < lpData->coils_number ) {
		++byte_number;
	}

	txBuffer[6] = byte_number;
	for( i = 0; i < byte_number; i++ ) {
    286e:	26 17       	cp	r18, r22
    2870:	90 f3       	brcs	.-28     	; 0x2856 <mbSendRequestForceMultipleCoils+0x8e>
		txBuffer[ i + 7 ] = lpData->lpCoils[i];
	}

	mbRtuAddCrcAndSendBuffer( txBuffer, 9 + byte_number );
    2872:	70 e0       	ldi	r23, 0x00	; 0
    2874:	67 5f       	subi	r22, 0xF7	; 247
    2876:	7f 4f       	sbci	r23, 0xFF	; 255
    2878:	ce 01       	movw	r24, r28
    287a:	01 96       	adiw	r24, 0x01	; 1
    287c:	0e 94 cb 13 	call	0x2796	; 0x2796 <mbRtuAddCrcAndSendBuffer>
}
    2880:	cc 5f       	subi	r28, 0xFC	; 252
    2882:	de 4f       	sbci	r29, 0xFE	; 254
    2884:	0f b6       	in	r0, 0x3f	; 63
    2886:	f8 94       	cli
    2888:	de bf       	out	0x3e, r29	; 62
    288a:	0f be       	out	0x3f, r0	; 63
    288c:	cd bf       	out	0x3d, r28	; 61
    288e:	cf 91       	pop	r28
    2890:	df 91       	pop	r29
    2892:	08 95       	ret

00002894 <mbSendRequestPresetSingleRegister>:

///////////////////////////////////////////////////////////////////////////////////////////////////////////////////////////////////////////////////////////////
// Preset Single Register (FC=06)

void mbSendRequestPresetSingleRegister( void *lpObject )
{
    2894:	df 93       	push	r29
    2896:	cf 93       	push	r28
    2898:	cd b7       	in	r28, 0x3d	; 61
    289a:	de b7       	in	r29, 0x3e	; 62
    289c:	28 97       	sbiw	r28, 0x08	; 8
    289e:	0f b6       	in	r0, 0x3f	; 63
    28a0:	f8 94       	cli
    28a2:	de bf       	out	0x3e, r29	; 62
    28a4:	0f be       	out	0x3f, r0	; 63
    28a6:	cd bf       	out	0x3d, r28	; 61
	LP_MB_MASTER_PRESET_SINGLE_REGISTER lpData = (LP_MB_MASTER_PRESET_SINGLE_REGISTER)lpObject;
    28a8:	dc 01       	movw	r26, r24
	uint8_t txBuffer[8] = { 0 };
    28aa:	9e 01       	movw	r18, r28
    28ac:	2f 5f       	subi	r18, 0xFF	; 255
    28ae:	3f 4f       	sbci	r19, 0xFF	; 255
    28b0:	88 e0       	ldi	r24, 0x08	; 8
    28b2:	f9 01       	movw	r30, r18
    28b4:	11 92       	st	Z+, r1
    28b6:	8a 95       	dec	r24
    28b8:	e9 f7       	brne	.-6      	; 0x28b4 <mbSendRequestPresetSingleRegister+0x20>

	lpData->exception_code = 0;
    28ba:	1c 92       	st	X, r1

	txBuffer[0] = lpData->address;
    28bc:	11 96       	adiw	r26, 0x01	; 1
    28be:	8c 91       	ld	r24, X
    28c0:	11 97       	sbiw	r26, 0x01	; 1
    28c2:	89 83       	std	Y+1, r24	; 0x01
	txBuffer[1] = 6;
    28c4:	86 e0       	ldi	r24, 0x06	; 6
    28c6:	8a 83       	std	Y+2, r24	; 0x02

	txBuffer[2] = lpData->register_address>>8;
    28c8:	13 96       	adiw	r26, 0x03	; 3
    28ca:	8c 91       	ld	r24, X
    28cc:	13 97       	sbiw	r26, 0x03	; 3
    28ce:	8b 83       	std	Y+3, r24	; 0x03
	txBuffer[3] = lpData->register_address;
    28d0:	12 96       	adiw	r26, 0x02	; 2
    28d2:	8c 91       	ld	r24, X
    28d4:	12 97       	sbiw	r26, 0x02	; 2
    28d6:	8c 83       	std	Y+4, r24	; 0x04

	txBuffer[4] = *lpData->lpRegister>>8;
    28d8:	14 96       	adiw	r26, 0x04	; 4
    28da:	ed 91       	ld	r30, X+
    28dc:	fc 91       	ld	r31, X
    28de:	15 97       	sbiw	r26, 0x05	; 5
    28e0:	81 81       	ldd	r24, Z+1	; 0x01
    28e2:	8d 83       	std	Y+5, r24	; 0x05
	txBuffer[5] = *lpData->lpRegister;
    28e4:	14 96       	adiw	r26, 0x04	; 4
    28e6:	ed 91       	ld	r30, X+
    28e8:	fc 91       	ld	r31, X
    28ea:	15 97       	sbiw	r26, 0x05	; 5
    28ec:	80 81       	ld	r24, Z
    28ee:	8e 83       	std	Y+6, r24	; 0x06

	mbRtuAddCrcAndSendBuffer( txBuffer, 8 );
    28f0:	c9 01       	movw	r24, r18
    28f2:	68 e0       	ldi	r22, 0x08	; 8
    28f4:	70 e0       	ldi	r23, 0x00	; 0
    28f6:	0e 94 cb 13 	call	0x2796	; 0x2796 <mbRtuAddCrcAndSendBuffer>
}
    28fa:	28 96       	adiw	r28, 0x08	; 8
    28fc:	0f b6       	in	r0, 0x3f	; 63
    28fe:	f8 94       	cli
    2900:	de bf       	out	0x3e, r29	; 62
    2902:	0f be       	out	0x3f, r0	; 63
    2904:	cd bf       	out	0x3d, r28	; 61
    2906:	cf 91       	pop	r28
    2908:	df 91       	pop	r29
    290a:	08 95       	ret

0000290c <mbSendRequestForceSingleCoil>:

///////////////////////////////////////////////////////////////////////////////////////////////////////////////////////////////////////////////////////////////
// Force Single Coil (FC=05)

void mbSendRequestForceSingleCoil( void *lpObject )
{
    290c:	df 93       	push	r29
    290e:	cf 93       	push	r28
    2910:	cd b7       	in	r28, 0x3d	; 61
    2912:	de b7       	in	r29, 0x3e	; 62
    2914:	28 97       	sbiw	r28, 0x08	; 8
    2916:	0f b6       	in	r0, 0x3f	; 63
    2918:	f8 94       	cli
    291a:	de bf       	out	0x3e, r29	; 62
    291c:	0f be       	out	0x3f, r0	; 63
    291e:	cd bf       	out	0x3d, r28	; 61
	LP_MB_MASTER_WRITE_SINGLE_COIL lpData = (LP_MB_MASTER_WRITE_SINGLE_COIL)lpObject;
    2920:	fc 01       	movw	r30, r24
	uint8_t txBuffer[8] = { 0 };
    2922:	9e 01       	movw	r18, r28
    2924:	2f 5f       	subi	r18, 0xFF	; 255
    2926:	3f 4f       	sbci	r19, 0xFF	; 255
    2928:	88 e0       	ldi	r24, 0x08	; 8
    292a:	d9 01       	movw	r26, r18
    292c:	1d 92       	st	X+, r1
    292e:	8a 95       	dec	r24
    2930:	e9 f7       	brne	.-6      	; 0x292c <mbSendRequestForceSingleCoil+0x20>

	lpData->exception_code = 0;
    2932:	10 82       	st	Z, r1

	txBuffer[0] = lpData->address;
    2934:	81 81       	ldd	r24, Z+1	; 0x01
    2936:	89 83       	std	Y+1, r24	; 0x01
	txBuffer[1] = 5;
    2938:	85 e0       	ldi	r24, 0x05	; 5
    293a:	8a 83       	std	Y+2, r24	; 0x02

	txBuffer[2] = lpData->coil_address>>8;
    293c:	1b 82       	std	Y+3, r1	; 0x03
	txBuffer[3] = lpData->coil_address;
    293e:	86 81       	ldd	r24, Z+6	; 0x06
    2940:	8c 83       	std	Y+4, r24	; 0x04

	if( *lpData->lpCoil ) {
    2942:	02 80       	ldd	r0, Z+2	; 0x02
    2944:	f3 81       	ldd	r31, Z+3	; 0x03
    2946:	e0 2d       	mov	r30, r0
    2948:	80 81       	ld	r24, Z
    294a:	88 23       	and	r24, r24
    294c:	11 f0       	breq	.+4      	; 0x2952 <mbSendRequestForceSingleCoil+0x46>
		txBuffer[4] = 0xff;
    294e:	8f ef       	ldi	r24, 0xFF	; 255
    2950:	8d 83       	std	Y+5, r24	; 0x05
	}

	mbRtuAddCrcAndSendBuffer( txBuffer, 8 );
    2952:	ce 01       	movw	r24, r28
    2954:	01 96       	adiw	r24, 0x01	; 1
    2956:	68 e0       	ldi	r22, 0x08	; 8
    2958:	70 e0       	ldi	r23, 0x00	; 0
    295a:	0e 94 cb 13 	call	0x2796	; 0x2796 <mbRtuAddCrcAndSendBuffer>
}
    295e:	28 96       	adiw	r28, 0x08	; 8
    2960:	0f b6       	in	r0, 0x3f	; 63
    2962:	f8 94       	cli
    2964:	de bf       	out	0x3e, r29	; 62
    2966:	0f be       	out	0x3f, r0	; 63
    2968:	cd bf       	out	0x3d, r28	; 61
    296a:	cf 91       	pop	r28
    296c:	df 91       	pop	r29
    296e:	08 95       	ret

00002970 <mbSendRequestReadInputStatus>:

///////////////////////////////////////////////////////////////////////////////////////////////////////////////////////////////////////////////////////////////
// Read Input Status (FC=02)

void mbSendRequestReadInputStatus( void *lpObject )
{
    2970:	df 93       	push	r29
    2972:	cf 93       	push	r28
    2974:	cd b7       	in	r28, 0x3d	; 61
    2976:	de b7       	in	r29, 0x3e	; 62
    2978:	28 97       	sbiw	r28, 0x08	; 8
    297a:	0f b6       	in	r0, 0x3f	; 63
    297c:	f8 94       	cli
    297e:	de bf       	out	0x3e, r29	; 62
    2980:	0f be       	out	0x3f, r0	; 63
    2982:	cd bf       	out	0x3d, r28	; 61
	LP_MB_MASTER_READ_INPUT_STATUS lpData = (LP_MB_MASTER_READ_INPUT_STATUS)lpObject;
    2984:	dc 01       	movw	r26, r24
	uint8_t txBuffer[8] = { 0 };
    2986:	9e 01       	movw	r18, r28
    2988:	2f 5f       	subi	r18, 0xFF	; 255
    298a:	3f 4f       	sbci	r19, 0xFF	; 255
    298c:	88 e0       	ldi	r24, 0x08	; 8
    298e:	f9 01       	movw	r30, r18
    2990:	11 92       	st	Z+, r1
    2992:	8a 95       	dec	r24
    2994:	e9 f7       	brne	.-6      	; 0x2990 <mbSendRequestReadInputStatus+0x20>

	lpData->exception_code = 0;
    2996:	1c 92       	st	X, r1

	lpData->byte_number = lpData->inputs_number / 8;
    2998:	15 96       	adiw	r26, 0x05	; 5
    299a:	2d 91       	ld	r18, X+
    299c:	3c 91       	ld	r19, X
    299e:	16 97       	sbiw	r26, 0x06	; 6
    29a0:	c9 01       	movw	r24, r18
    29a2:	73 e0       	ldi	r23, 0x03	; 3
    29a4:	96 95       	lsr	r25
    29a6:	87 95       	ror	r24
    29a8:	7a 95       	dec	r23
    29aa:	e1 f7       	brne	.-8      	; 0x29a4 <mbSendRequestReadInputStatus+0x34>
    29ac:	48 2f       	mov	r20, r24
    29ae:	17 96       	adiw	r26, 0x07	; 7
    29b0:	8c 93       	st	X, r24
    29b2:	17 97       	sbiw	r26, 0x07	; 7
	if( 8 * lpData->byte_number < lpData->inputs_number ) {
    29b4:	90 e0       	ldi	r25, 0x00	; 0
    29b6:	63 e0       	ldi	r22, 0x03	; 3
    29b8:	88 0f       	add	r24, r24
    29ba:	99 1f       	adc	r25, r25
    29bc:	6a 95       	dec	r22
    29be:	e1 f7       	brne	.-8      	; 0x29b8 <mbSendRequestReadInputStatus+0x48>
    29c0:	82 17       	cp	r24, r18
    29c2:	93 07       	cpc	r25, r19
    29c4:	20 f4       	brcc	.+8      	; 0x29ce <mbSendRequestReadInputStatus+0x5e>
		++lpData->byte_number;
    29c6:	4f 5f       	subi	r20, 0xFF	; 255
    29c8:	17 96       	adiw	r26, 0x07	; 7
    29ca:	4c 93       	st	X, r20
    29cc:	17 97       	sbiw	r26, 0x07	; 7
	}

	txBuffer[0] = lpData->address;
    29ce:	11 96       	adiw	r26, 0x01	; 1
    29d0:	8c 91       	ld	r24, X
    29d2:	11 97       	sbiw	r26, 0x01	; 1
    29d4:	89 83       	std	Y+1, r24	; 0x01
	txBuffer[1] = 2;
    29d6:	82 e0       	ldi	r24, 0x02	; 2
    29d8:	8a 83       	std	Y+2, r24	; 0x02

	txBuffer[2] = lpData->inputs_address>>8;
    29da:	1b 82       	std	Y+3, r1	; 0x03
	txBuffer[3] = lpData->inputs_address;
    29dc:	14 96       	adiw	r26, 0x04	; 4
    29de:	8c 91       	ld	r24, X
    29e0:	14 97       	sbiw	r26, 0x04	; 4
    29e2:	8c 83       	std	Y+4, r24	; 0x04

	txBuffer[4] = lpData->inputs_number>>8;
    29e4:	16 96       	adiw	r26, 0x06	; 6
    29e6:	8c 91       	ld	r24, X
    29e8:	16 97       	sbiw	r26, 0x06	; 6
    29ea:	8d 83       	std	Y+5, r24	; 0x05
	txBuffer[5] = lpData->inputs_number;
    29ec:	15 96       	adiw	r26, 0x05	; 5
    29ee:	8c 91       	ld	r24, X
    29f0:	8e 83       	std	Y+6, r24	; 0x06

	mbRtuAddCrcAndSendBuffer( txBuffer, 8 );
    29f2:	ce 01       	movw	r24, r28
    29f4:	01 96       	adiw	r24, 0x01	; 1
    29f6:	68 e0       	ldi	r22, 0x08	; 8
    29f8:	70 e0       	ldi	r23, 0x00	; 0
    29fa:	0e 94 cb 13 	call	0x2796	; 0x2796 <mbRtuAddCrcAndSendBuffer>
}
    29fe:	28 96       	adiw	r28, 0x08	; 8
    2a00:	0f b6       	in	r0, 0x3f	; 63
    2a02:	f8 94       	cli
    2a04:	de bf       	out	0x3e, r29	; 62
    2a06:	0f be       	out	0x3f, r0	; 63
    2a08:	cd bf       	out	0x3d, r28	; 61
    2a0a:	cf 91       	pop	r28
    2a0c:	df 91       	pop	r29
    2a0e:	08 95       	ret

00002a10 <rs485Task>:

volatile static uint8_t usRS485PortAsMaster = 0;

void rs485Task( void )
{
	if( !ucChannelCount || !usRS485PortAsMaster ) {
    2a10:	80 91 a7 03 	lds	r24, 0x03A7
    2a14:	88 23       	and	r24, r24
    2a16:	09 f4       	brne	.+2      	; 0x2a1a <rs485Task+0xa>
    2a18:	68 c1       	rjmp	.+720    	; 0x2cea <rs485Task+0x2da>
    2a1a:	80 91 a6 03 	lds	r24, 0x03A6
    2a1e:	88 23       	and	r24, r24
    2a20:	09 f4       	brne	.+2      	; 0x2a24 <rs485Task+0x14>
    2a22:	63 c1       	rjmp	.+710    	; 0x2cea <rs485Task+0x2da>
		return;
	}

	if( !uiSysRS485SendRequestTimer ) {
    2a24:	80 91 34 01 	lds	r24, 0x0134
    2a28:	90 91 35 01 	lds	r25, 0x0135
    2a2c:	89 2b       	or	r24, r25
    2a2e:	09 f0       	breq	.+2      	; 0x2a32 <rs485Task+0x22>
    2a30:	88 c0       	rjmp	.+272    	; 0x2b42 <rs485Task+0x132>

		ucRS485ChannelIndex = ucRS485ChannelCounter;
    2a32:	80 91 aa 03 	lds	r24, 0x03AA
    2a36:	80 93 ab 03 	sts	0x03AB, r24
		if( ++ucRS485ChannelCounter >= ucChannelCount ) {
    2a3a:	80 91 aa 03 	lds	r24, 0x03AA
    2a3e:	8f 5f       	subi	r24, 0xFF	; 255
    2a40:	80 93 aa 03 	sts	0x03AA, r24
    2a44:	90 91 aa 03 	lds	r25, 0x03AA
    2a48:	80 91 a7 03 	lds	r24, 0x03A7
    2a4c:	98 17       	cp	r25, r24
    2a4e:	40 f0       	brcs	.+16     	; 0x2a60 <rs485Task+0x50>
			ucRS485ChannelCounter = 0;
    2a50:	10 92 aa 03 	sts	0x03AA, r1
			PORTG ^= MCU_PG1_bm;
    2a54:	80 91 65 00 	lds	r24, 0x0065
    2a58:	92 e0       	ldi	r25, 0x02	; 2
    2a5a:	89 27       	eor	r24, r25
    2a5c:	80 93 65 00 	sts	0x0065, r24
		}

		if( NULL == lpArrRS485Channel[ ucRS485ChannelIndex ] ) {
    2a60:	e0 91 ab 03 	lds	r30, 0x03AB
    2a64:	f0 e0       	ldi	r31, 0x00	; 0
    2a66:	ee 0f       	add	r30, r30
    2a68:	ff 1f       	adc	r31, r31
    2a6a:	e7 54       	subi	r30, 0x47	; 71
    2a6c:	fb 4f       	sbci	r31, 0xFB	; 251
    2a6e:	80 81       	ld	r24, Z
    2a70:	91 81       	ldd	r25, Z+1	; 0x01
    2a72:	89 2b       	or	r24, r25
    2a74:	09 f4       	brne	.+2      	; 0x2a78 <rs485Task+0x68>
    2a76:	39 c1       	rjmp	.+626    	; 0x2cea <rs485Task+0x2da>

		/*
			  xx .      
			  RS485 .
		*/
		lpArrRS485Channel[ ucRS485ChannelIndex ]->ucFlag = 0;
    2a78:	e0 91 ab 03 	lds	r30, 0x03AB
    2a7c:	f0 e0       	ldi	r31, 0x00	; 0
    2a7e:	ee 0f       	add	r30, r30
    2a80:	ff 1f       	adc	r31, r31
    2a82:	e7 54       	subi	r30, 0x47	; 71
    2a84:	fb 4f       	sbci	r31, 0xFB	; 251
    2a86:	01 90       	ld	r0, Z+
    2a88:	f0 81       	ld	r31, Z
    2a8a:	e0 2d       	mov	r30, r0
    2a8c:	15 82       	std	Z+5, r1	; 0x05
		lpArrRS485Channel[ ucRS485ChannelIndex ]->rs485SetUartSetings( lpArrRS485Channel[ ucRS485ChannelIndex ]->lpData );
    2a8e:	e0 91 ab 03 	lds	r30, 0x03AB
    2a92:	f0 e0       	ldi	r31, 0x00	; 0
    2a94:	ee 0f       	add	r30, r30
    2a96:	ff 1f       	adc	r31, r31
    2a98:	e7 54       	subi	r30, 0x47	; 71
    2a9a:	fb 4f       	sbci	r31, 0xFB	; 251
    2a9c:	a0 81       	ld	r26, Z
    2a9e:	b1 81       	ldd	r27, Z+1	; 0x01
    2aa0:	e0 91 ab 03 	lds	r30, 0x03AB
    2aa4:	f0 e0       	ldi	r31, 0x00	; 0
    2aa6:	ee 0f       	add	r30, r30
    2aa8:	ff 1f       	adc	r31, r31
    2aaa:	e7 54       	subi	r30, 0x47	; 71
    2aac:	fb 4f       	sbci	r31, 0xFB	; 251
    2aae:	01 90       	ld	r0, Z+
    2ab0:	f0 81       	ld	r31, Z
    2ab2:	e0 2d       	mov	r30, r0
    2ab4:	1b 96       	adiw	r26, 0x0b	; 11
    2ab6:	2d 91       	ld	r18, X+
    2ab8:	3c 91       	ld	r19, X
    2aba:	1c 97       	sbiw	r26, 0x0c	; 12
    2abc:	80 81       	ld	r24, Z
    2abe:	91 81       	ldd	r25, Z+1	; 0x01
    2ac0:	f9 01       	movw	r30, r18
    2ac2:	09 95       	icall
		lpArrRS485Channel[ ucRS485ChannelIndex ]->rs485SendRequestFunc( lpArrRS485Channel[ ucRS485ChannelIndex ]->lpData );
    2ac4:	e0 91 ab 03 	lds	r30, 0x03AB
    2ac8:	f0 e0       	ldi	r31, 0x00	; 0
    2aca:	ee 0f       	add	r30, r30
    2acc:	ff 1f       	adc	r31, r31
    2ace:	e7 54       	subi	r30, 0x47	; 71
    2ad0:	fb 4f       	sbci	r31, 0xFB	; 251
    2ad2:	a0 81       	ld	r26, Z
    2ad4:	b1 81       	ldd	r27, Z+1	; 0x01
    2ad6:	e0 91 ab 03 	lds	r30, 0x03AB
    2ada:	f0 e0       	ldi	r31, 0x00	; 0
    2adc:	ee 0f       	add	r30, r30
    2ade:	ff 1f       	adc	r31, r31
    2ae0:	e7 54       	subi	r30, 0x47	; 71
    2ae2:	fb 4f       	sbci	r31, 0xFB	; 251
    2ae4:	01 90       	ld	r0, Z+
    2ae6:	f0 81       	ld	r31, Z
    2ae8:	e0 2d       	mov	r30, r0
    2aea:	1f 96       	adiw	r26, 0x0f	; 15
    2aec:	2d 91       	ld	r18, X+
    2aee:	3c 91       	ld	r19, X
    2af0:	50 97       	sbiw	r26, 0x10	; 16
    2af2:	80 81       	ld	r24, Z
    2af4:	91 81       	ldd	r25, Z+1	; 0x01
    2af6:	f9 01       	movw	r30, r18
    2af8:	09 95       	icall

		//     + Timeout
		uiSysRS485ReciverTimer		= lpArrRS485Channel[ ucRS485ChannelIndex ]->msReadTimeOut;
    2afa:	e0 91 ab 03 	lds	r30, 0x03AB
    2afe:	f0 e0       	ldi	r31, 0x00	; 0
    2b00:	ee 0f       	add	r30, r30
    2b02:	ff 1f       	adc	r31, r31
    2b04:	e7 54       	subi	r30, 0x47	; 71
    2b06:	fb 4f       	sbci	r31, 0xFB	; 251
    2b08:	01 90       	ld	r0, Z+
    2b0a:	f0 81       	ld	r31, Z
    2b0c:	e0 2d       	mov	r30, r0
    2b0e:	82 81       	ldd	r24, Z+2	; 0x02
    2b10:	93 81       	ldd	r25, Z+3	; 0x03
    2b12:	90 93 a9 03 	sts	0x03A9, r25
    2b16:	80 93 a8 03 	sts	0x03A8, r24
		uiSysRS485SendRequestTimer	= lpArrRS485Channel[ ucRS485ChannelIndex ]->msReadTimeOut + __RS485_PAUSE_FOR_NEXT_REQUEST__;
    2b1a:	e0 91 ab 03 	lds	r30, 0x03AB
    2b1e:	f0 e0       	ldi	r31, 0x00	; 0
    2b20:	ee 0f       	add	r30, r30
    2b22:	ff 1f       	adc	r31, r31
    2b24:	e7 54       	subi	r30, 0x47	; 71
    2b26:	fb 4f       	sbci	r31, 0xFB	; 251
    2b28:	01 90       	ld	r0, Z+
    2b2a:	f0 81       	ld	r31, Z
    2b2c:	e0 2d       	mov	r30, r0
    2b2e:	20 91 36 01 	lds	r18, 0x0136
    2b32:	82 81       	ldd	r24, Z+2	; 0x02
    2b34:	93 81       	ldd	r25, Z+3	; 0x03
    2b36:	82 0f       	add	r24, r18
    2b38:	91 1d       	adc	r25, r1
    2b3a:	90 93 35 01 	sts	0x0135, r25
    2b3e:	80 93 34 01 	sts	0x0134, r24
	}

	if( uiSysRS485ReciverTimer ) {
    2b42:	80 91 a8 03 	lds	r24, 0x03A8
    2b46:	90 91 a9 03 	lds	r25, 0x03A9
    2b4a:	89 2b       	or	r24, r25
    2b4c:	09 f4       	brne	.+2      	; 0x2b50 <rs485Task+0x140>
    2b4e:	62 c0       	rjmp	.+196    	; 0x2c14 <rs485Task+0x204>
		if( 1 ) {//|| rs485ReciverTimer != rs485ReciverTimerOld ) {
			rs485ReciverTimerOld = uiSysRS485ReciverTimer;
    2b50:	80 91 a8 03 	lds	r24, 0x03A8
    2b54:	90 91 a9 03 	lds	r25, 0x03A9
    2b58:	90 93 ad 03 	sts	0x03AD, r25
    2b5c:	80 93 ac 03 	sts	0x03AC, r24

			if( lpArrRS485Channel[ ucRS485ChannelIndex ]->rs485GetResponseFunc( (uint8_t*)ucRS485rxBuffer, ucRS485rxState, lpArrRS485Channel[ ucRS485ChannelIndex ]->lpData ) ) {
    2b60:	e0 91 ab 03 	lds	r30, 0x03AB
    2b64:	f0 e0       	ldi	r31, 0x00	; 0
    2b66:	ee 0f       	add	r30, r30
    2b68:	ff 1f       	adc	r31, r31
    2b6a:	e7 54       	subi	r30, 0x47	; 71
    2b6c:	fb 4f       	sbci	r31, 0xFB	; 251
    2b6e:	a0 81       	ld	r26, Z
    2b70:	b1 81       	ldd	r27, Z+1	; 0x01
    2b72:	60 91 b6 04 	lds	r22, 0x04B6
    2b76:	e0 91 ab 03 	lds	r30, 0x03AB
    2b7a:	f0 e0       	ldi	r31, 0x00	; 0
    2b7c:	ee 0f       	add	r30, r30
    2b7e:	ff 1f       	adc	r31, r31
    2b80:	e7 54       	subi	r30, 0x47	; 71
    2b82:	fb 4f       	sbci	r31, 0xFB	; 251
    2b84:	01 90       	ld	r0, Z+
    2b86:	f0 81       	ld	r31, Z
    2b88:	e0 2d       	mov	r30, r0
    2b8a:	40 81       	ld	r20, Z
    2b8c:	51 81       	ldd	r21, Z+1	; 0x01
    2b8e:	51 96       	adiw	r26, 0x11	; 17
    2b90:	ed 91       	ld	r30, X+
    2b92:	fc 91       	ld	r31, X
    2b94:	52 97       	sbiw	r26, 0x12	; 18
    2b96:	80 91 b7 04 	lds	r24, 0x04B7
    2b9a:	90 91 b8 04 	lds	r25, 0x04B8
    2b9e:	09 95       	icall
    2ba0:	88 23       	and	r24, r24
    2ba2:	09 f4       	brne	.+2      	; 0x2ba6 <rs485Task+0x196>
    2ba4:	a2 c0       	rjmp	.+324    	; 0x2cea <rs485Task+0x2da>
				lpArrRS485Channel[ ucRS485ChannelIndex ]->rs485ClrTimeOutError( lpArrRS485Channel[ ucRS485ChannelIndex ]->lpData );
    2ba6:	e0 91 ab 03 	lds	r30, 0x03AB
    2baa:	f0 e0       	ldi	r31, 0x00	; 0
    2bac:	ee 0f       	add	r30, r30
    2bae:	ff 1f       	adc	r31, r31
    2bb0:	e7 54       	subi	r30, 0x47	; 71
    2bb2:	fb 4f       	sbci	r31, 0xFB	; 251
    2bb4:	a0 81       	ld	r26, Z
    2bb6:	b1 81       	ldd	r27, Z+1	; 0x01
    2bb8:	e0 91 ab 03 	lds	r30, 0x03AB
    2bbc:	f0 e0       	ldi	r31, 0x00	; 0
    2bbe:	ee 0f       	add	r30, r30
    2bc0:	ff 1f       	adc	r31, r31
    2bc2:	e7 54       	subi	r30, 0x47	; 71
    2bc4:	fb 4f       	sbci	r31, 0xFB	; 251
    2bc6:	01 90       	ld	r0, Z+
    2bc8:	f0 81       	ld	r31, Z
    2bca:	e0 2d       	mov	r30, r0
    2bcc:	19 96       	adiw	r26, 0x09	; 9
    2bce:	2d 91       	ld	r18, X+
    2bd0:	3c 91       	ld	r19, X
    2bd2:	1a 97       	sbiw	r26, 0x0a	; 10
    2bd4:	80 81       	ld	r24, Z
    2bd6:	91 81       	ldd	r25, Z+1	; 0x01
    2bd8:	f9 01       	movw	r30, r18
    2bda:	09 95       	icall
				lpArrRS485Channel[ ucRS485ChannelIndex ]->rxErrorCounter = 0;
    2bdc:	e0 91 ab 03 	lds	r30, 0x03AB
    2be0:	f0 e0       	ldi	r31, 0x00	; 0
    2be2:	ee 0f       	add	r30, r30
    2be4:	ff 1f       	adc	r31, r31
    2be6:	e7 54       	subi	r30, 0x47	; 71
    2be8:	fb 4f       	sbci	r31, 0xFB	; 251
    2bea:	01 90       	ld	r0, Z+
    2bec:	f0 81       	ld	r31, Z
    2bee:	e0 2d       	mov	r30, r0
    2bf0:	16 82       	std	Z+6, r1	; 0x06
				lpArrRS485Channel[ ucRS485ChannelIndex ]->ucFlag = 1; // OK
    2bf2:	e0 91 ab 03 	lds	r30, 0x03AB
    2bf6:	f0 e0       	ldi	r31, 0x00	; 0
    2bf8:	ee 0f       	add	r30, r30
    2bfa:	ff 1f       	adc	r31, r31
    2bfc:	e7 54       	subi	r30, 0x47	; 71
    2bfe:	fb 4f       	sbci	r31, 0xFB	; 251
    2c00:	01 90       	ld	r0, Z+
    2c02:	f0 81       	ld	r31, Z
    2c04:	e0 2d       	mov	r30, r0
    2c06:	81 e0       	ldi	r24, 0x01	; 1
    2c08:	85 83       	std	Z+5, r24	; 0x05

				uiSysRS485ReciverTimer = 0;
    2c0a:	10 92 a9 03 	sts	0x03A9, r1
    2c0e:	10 92 a8 03 	sts	0x03A8, r1
    2c12:	08 95       	ret
			}
		}
	} else {
		lpArrRS485Channel[ ucRS485ChannelIndex ]->rs485RestoreUartSetings( lpArrRS485Channel[ ucRS485ChannelIndex ]->lpData );
    2c14:	e0 91 ab 03 	lds	r30, 0x03AB
    2c18:	f0 e0       	ldi	r31, 0x00	; 0
    2c1a:	ee 0f       	add	r30, r30
    2c1c:	ff 1f       	adc	r31, r31
    2c1e:	e7 54       	subi	r30, 0x47	; 71
    2c20:	fb 4f       	sbci	r31, 0xFB	; 251
    2c22:	a0 81       	ld	r26, Z
    2c24:	b1 81       	ldd	r27, Z+1	; 0x01
    2c26:	e0 91 ab 03 	lds	r30, 0x03AB
    2c2a:	f0 e0       	ldi	r31, 0x00	; 0
    2c2c:	ee 0f       	add	r30, r30
    2c2e:	ff 1f       	adc	r31, r31
    2c30:	e7 54       	subi	r30, 0x47	; 71
    2c32:	fb 4f       	sbci	r31, 0xFB	; 251
    2c34:	01 90       	ld	r0, Z+
    2c36:	f0 81       	ld	r31, Z
    2c38:	e0 2d       	mov	r30, r0
    2c3a:	1d 96       	adiw	r26, 0x0d	; 13
    2c3c:	2d 91       	ld	r18, X+
    2c3e:	3c 91       	ld	r19, X
    2c40:	1e 97       	sbiw	r26, 0x0e	; 14
    2c42:	80 81       	ld	r24, Z
    2c44:	91 81       	ldd	r25, Z+1	; 0x01
    2c46:	f9 01       	movw	r30, r18
    2c48:	09 95       	icall

		if( !lpArrRS485Channel[ ucRS485ChannelIndex ]->ucFlag ) {
    2c4a:	e0 91 ab 03 	lds	r30, 0x03AB
    2c4e:	f0 e0       	ldi	r31, 0x00	; 0
    2c50:	ee 0f       	add	r30, r30
    2c52:	ff 1f       	adc	r31, r31
    2c54:	e7 54       	subi	r30, 0x47	; 71
    2c56:	fb 4f       	sbci	r31, 0xFB	; 251
    2c58:	01 90       	ld	r0, Z+
    2c5a:	f0 81       	ld	r31, Z
    2c5c:	e0 2d       	mov	r30, r0
    2c5e:	85 81       	ldd	r24, Z+5	; 0x05
    2c60:	88 23       	and	r24, r24
    2c62:	09 f0       	breq	.+2      	; 0x2c66 <rs485Task+0x256>
    2c64:	42 c0       	rjmp	.+132    	; 0x2cea <rs485Task+0x2da>
			lpArrRS485Channel[ ucRS485ChannelIndex ]->ucFlag = 2; // Timeout
    2c66:	e0 91 ab 03 	lds	r30, 0x03AB
    2c6a:	f0 e0       	ldi	r31, 0x00	; 0
    2c6c:	ee 0f       	add	r30, r30
    2c6e:	ff 1f       	adc	r31, r31
    2c70:	e7 54       	subi	r30, 0x47	; 71
    2c72:	fb 4f       	sbci	r31, 0xFB	; 251
    2c74:	01 90       	ld	r0, Z+
    2c76:	f0 81       	ld	r31, Z
    2c78:	e0 2d       	mov	r30, r0
    2c7a:	82 e0       	ldi	r24, 0x02	; 2
    2c7c:	85 83       	std	Z+5, r24	; 0x05

			//  N timeout     timeout 
			if( lpArrRS485Channel[ ucRS485ChannelIndex ]->rxErrorCounter < 5 ) {
    2c7e:	e0 91 ab 03 	lds	r30, 0x03AB
    2c82:	f0 e0       	ldi	r31, 0x00	; 0
    2c84:	ee 0f       	add	r30, r30
    2c86:	ff 1f       	adc	r31, r31
    2c88:	e7 54       	subi	r30, 0x47	; 71
    2c8a:	fb 4f       	sbci	r31, 0xFB	; 251
    2c8c:	01 90       	ld	r0, Z+
    2c8e:	f0 81       	ld	r31, Z
    2c90:	e0 2d       	mov	r30, r0
    2c92:	86 81       	ldd	r24, Z+6	; 0x06
    2c94:	85 30       	cpi	r24, 0x05	; 5
    2c96:	70 f4       	brcc	.+28     	; 0x2cb4 <rs485Task+0x2a4>
				++lpArrRS485Channel[ ucRS485ChannelIndex ]->rxErrorCounter;
    2c98:	e0 91 ab 03 	lds	r30, 0x03AB
    2c9c:	f0 e0       	ldi	r31, 0x00	; 0
    2c9e:	ee 0f       	add	r30, r30
    2ca0:	ff 1f       	adc	r31, r31
    2ca2:	e7 54       	subi	r30, 0x47	; 71
    2ca4:	fb 4f       	sbci	r31, 0xFB	; 251
    2ca6:	01 90       	ld	r0, Z+
    2ca8:	f0 81       	ld	r31, Z
    2caa:	e0 2d       	mov	r30, r0
    2cac:	86 81       	ldd	r24, Z+6	; 0x06
    2cae:	8f 5f       	subi	r24, 0xFF	; 255
    2cb0:	86 83       	std	Z+6, r24	; 0x06
    2cb2:	08 95       	ret
			} else {
				lpArrRS485Channel[ ucRS485ChannelIndex ]->rs485SetTimeOutError( lpArrRS485Channel[ ucRS485ChannelIndex ]->lpData );
    2cb4:	e0 91 ab 03 	lds	r30, 0x03AB
    2cb8:	f0 e0       	ldi	r31, 0x00	; 0
    2cba:	ee 0f       	add	r30, r30
    2cbc:	ff 1f       	adc	r31, r31
    2cbe:	e7 54       	subi	r30, 0x47	; 71
    2cc0:	fb 4f       	sbci	r31, 0xFB	; 251
    2cc2:	a0 81       	ld	r26, Z
    2cc4:	b1 81       	ldd	r27, Z+1	; 0x01
    2cc6:	e0 91 ab 03 	lds	r30, 0x03AB
    2cca:	f0 e0       	ldi	r31, 0x00	; 0
    2ccc:	ee 0f       	add	r30, r30
    2cce:	ff 1f       	adc	r31, r31
    2cd0:	e7 54       	subi	r30, 0x47	; 71
    2cd2:	fb 4f       	sbci	r31, 0xFB	; 251
    2cd4:	01 90       	ld	r0, Z+
    2cd6:	f0 81       	ld	r31, Z
    2cd8:	e0 2d       	mov	r30, r0
    2cda:	17 96       	adiw	r26, 0x07	; 7
    2cdc:	2d 91       	ld	r18, X+
    2cde:	3c 91       	ld	r19, X
    2ce0:	18 97       	sbiw	r26, 0x08	; 8
    2ce2:	80 81       	ld	r24, Z
    2ce4:	91 81       	ldd	r25, Z+1	; 0x01
    2ce6:	f9 01       	movw	r30, r18
    2ce8:	09 95       	icall
    2cea:	08 95       	ret

00002cec <rs485TaskEnable>:
	}
}

void rs485TaskEnable( void )
{
	usRS485PortAsMaster = 1;
    2cec:	81 e0       	ldi	r24, 0x01	; 1
    2cee:	80 93 a6 03 	sts	0x03A6, r24
}
    2cf2:	08 95       	ret

00002cf4 <rs485TaskDisable>:

void rs485TaskDisable( void )
{
	usRS485PortAsMaster = 0;
    2cf4:	10 92 a6 03 	sts	0x03A6, r1
}
    2cf8:	08 95       	ret

00002cfa <rs485TaskIsEnable>:

uint8_t rs485TaskIsEnable( void )
{
	return usRS485PortAsMaster;
    2cfa:	80 91 a6 03 	lds	r24, 0x03A6
}
    2cfe:	08 95       	ret

00002d00 <rs485TaskInit>:
	usRS485PortAsMaster = 1;
}

void rs485TaskDisable( void )
{
	usRS485PortAsMaster = 0;
    2d00:	10 92 a6 03 	sts	0x03A6, r1
{
	uint8_t i;

	rs485TaskDisable();

	ucRS485txBuffer = ucRS485txrxBuffer;
    2d04:	8e ea       	ldi	r24, 0xAE	; 174
    2d06:	93 e0       	ldi	r25, 0x03	; 3
    2d08:	90 93 b4 04 	sts	0x04B4, r25
    2d0c:	80 93 b3 04 	sts	0x04B3, r24
	ucRS485rxBuffer = ucRS485txrxBuffer;
    2d10:	90 93 b8 04 	sts	0x04B8, r25
    2d14:	80 93 b7 04 	sts	0x04B7, r24

	ucChannelCount = 0;
    2d18:	10 92 a7 03 	sts	0x03A7, r1
    2d1c:	80 e0       	ldi	r24, 0x00	; 0
    2d1e:	90 e0       	ldi	r25, 0x00	; 0
	for( i = 0; i < size_of_array( lpArrRS485Channel ); i++ ) {
		lpArrRS485Channel[i] = NULL;
    2d20:	fc 01       	movw	r30, r24
    2d22:	ee 0f       	add	r30, r30
    2d24:	ff 1f       	adc	r31, r31
    2d26:	e7 54       	subi	r30, 0x47	; 71
    2d28:	fb 4f       	sbci	r31, 0xFB	; 251
    2d2a:	11 82       	std	Z+1, r1	; 0x01
    2d2c:	10 82       	st	Z, r1
    2d2e:	01 96       	adiw	r24, 0x01	; 1

	ucRS485txBuffer = ucRS485txrxBuffer;
	ucRS485rxBuffer = ucRS485txrxBuffer;

	ucChannelCount = 0;
	for( i = 0; i < size_of_array( lpArrRS485Channel ); i++ ) {
    2d30:	82 33       	cpi	r24, 0x32	; 50
    2d32:	91 05       	cpc	r25, r1
    2d34:	a9 f7       	brne	.-22     	; 0x2d20 <rs485TaskInit+0x20>
		lpArrRS485Channel[i] = NULL;
	}
}
    2d36:	08 95       	ret

00002d38 <rs485TimerIsr>:

void rs485TimerIsr( void )
{
	if( uiSysRS485SendRequestTimer ) {
    2d38:	80 91 34 01 	lds	r24, 0x0134
    2d3c:	90 91 35 01 	lds	r25, 0x0135
    2d40:	89 2b       	or	r24, r25
    2d42:	49 f0       	breq	.+18     	; 0x2d56 <rs485TimerIsr+0x1e>
		--uiSysRS485SendRequestTimer;
    2d44:	80 91 34 01 	lds	r24, 0x0134
    2d48:	90 91 35 01 	lds	r25, 0x0135
    2d4c:	01 97       	sbiw	r24, 0x01	; 1
    2d4e:	90 93 35 01 	sts	0x0135, r25
    2d52:	80 93 34 01 	sts	0x0134, r24
	}

	if( uiSysRS485ReciverTimer ) {
    2d56:	80 91 a8 03 	lds	r24, 0x03A8
    2d5a:	90 91 a9 03 	lds	r25, 0x03A9
    2d5e:	89 2b       	or	r24, r25
    2d60:	49 f0       	breq	.+18     	; 0x2d74 <rs485TimerIsr+0x3c>
		--uiSysRS485ReciverTimer;
    2d62:	80 91 a8 03 	lds	r24, 0x03A8
    2d66:	90 91 a9 03 	lds	r25, 0x03A9
    2d6a:	01 97       	sbiw	r24, 0x01	; 1
    2d6c:	90 93 a9 03 	sts	0x03A9, r25
    2d70:	80 93 a8 03 	sts	0x03A8, r24
    2d74:	08 95       	ret

00002d76 <rs485AddChannel>:
	}
}

uint8_t rs485AddChannel( LP_OBJ_RS485_CHANNEL lpChannel )
{
	lpArrRS485Channel[ ucChannelCount ] = lpChannel;
    2d76:	e0 91 a7 03 	lds	r30, 0x03A7
    2d7a:	f0 e0       	ldi	r31, 0x00	; 0
    2d7c:	ee 0f       	add	r30, r30
    2d7e:	ff 1f       	adc	r31, r31
    2d80:	e7 54       	subi	r30, 0x47	; 71
    2d82:	fb 4f       	sbci	r31, 0xFB	; 251
    2d84:	91 83       	std	Z+1, r25	; 0x01
    2d86:	80 83       	st	Z, r24

	if( ++ucChannelCount > size_of_array( lpArrRS485Channel ) ) {
    2d88:	80 91 a7 03 	lds	r24, 0x03A7
    2d8c:	8f 5f       	subi	r24, 0xFF	; 255
    2d8e:	80 93 a7 03 	sts	0x03A7, r24
    2d92:	80 91 a7 03 	lds	r24, 0x03A7
    2d96:	83 33       	cpi	r24, 0x33	; 51
    2d98:	10 f4       	brcc	.+4      	; 0x2d9e <rs485AddChannel+0x28>
    2d9a:	81 e0       	ldi	r24, 0x01	; 1
    2d9c:	08 95       	ret
		ucChannelCount = size_of_array( lpArrRS485Channel );
    2d9e:	82 e3       	ldi	r24, 0x32	; 50
    2da0:	80 93 a7 03 	sts	0x03A7, r24
    2da4:	80 e0       	ldi	r24, 0x00	; 0
		return 0;
	}

	return 1;
}
    2da6:	08 95       	ret

00002da8 <rs485ChannelDefInit>:

void rs485ChannelDefInit( LP_OBJ_RS485_CHANNEL lpChannel )
{
    2da8:	fc 01       	movw	r30, r24
	lpChannel->lpData = NULL;
    2daa:	11 82       	std	Z+1, r1	; 0x01
    2dac:	10 82       	st	Z, r1

	lpChannel->msReadTimeOut = 100;
    2dae:	84 e6       	ldi	r24, 0x64	; 100
    2db0:	90 e0       	ldi	r25, 0x00	; 0
    2db2:	93 83       	std	Z+3, r25	; 0x03
    2db4:	82 83       	std	Z+2, r24	; 0x02
	lpChannel->ucEnableRequest = 0;
    2db6:	14 82       	std	Z+4, r1	; 0x04
	lpChannel->rxErrorCounter = 0;
    2db8:	16 82       	std	Z+6, r1	; 0x06
	lpChannel->ucFlag = 0;
    2dba:	15 82       	std	Z+5, r1	; 0x05

	lpChannel->rs485SetUartSetings = rs485SetUartSetingsNullFunc;
    2dbc:	8a ef       	ldi	r24, 0xFA	; 250
    2dbe:	96 e1       	ldi	r25, 0x16	; 22
    2dc0:	94 87       	std	Z+12, r25	; 0x0c
    2dc2:	83 87       	std	Z+11, r24	; 0x0b
	lpChannel->rs485RestoreUartSetings = rs485RestoreUartSetingsNullFunc;
    2dc4:	8b ef       	ldi	r24, 0xFB	; 251
    2dc6:	96 e1       	ldi	r25, 0x16	; 22
    2dc8:	96 87       	std	Z+14, r25	; 0x0e
    2dca:	85 87       	std	Z+13, r24	; 0x0d

	lpChannel->rs485SendRequestFunc = rs485sendRequestNullFunc;
    2dcc:	87 ef       	ldi	r24, 0xF7	; 247
    2dce:	96 e1       	ldi	r25, 0x16	; 22
    2dd0:	90 8b       	std	Z+16, r25	; 0x10
    2dd2:	87 87       	std	Z+15, r24	; 0x0f
	lpChannel->rs485GetResponseFunc = rs485getResponseNullFunc;
    2dd4:	88 ef       	ldi	r24, 0xF8	; 248
    2dd6:	96 e1       	ldi	r25, 0x16	; 22
    2dd8:	92 8b       	std	Z+18, r25	; 0x12
    2dda:	81 8b       	std	Z+17, r24	; 0x11

	lpChannel->rs485SetTimeOutError = rs485SetTimeOutErrorNullFunc;
    2ddc:	8c ef       	ldi	r24, 0xFC	; 252
    2dde:	96 e1       	ldi	r25, 0x16	; 22
    2de0:	90 87       	std	Z+8, r25	; 0x08
    2de2:	87 83       	std	Z+7, r24	; 0x07
	lpChannel->rs485ClrTimeOutError = rs485ClrTimeOutErrorNullFunc;
    2de4:	8d ef       	ldi	r24, 0xFD	; 253
    2de6:	96 e1       	ldi	r25, 0x16	; 22
    2de8:	92 87       	std	Z+10, r25	; 0x0a
    2dea:	81 87       	std	Z+9, r24	; 0x09
}
    2dec:	08 95       	ret

00002dee <rs485sendRequestNullFunc>:

void rs485sendRequestNullFunc( void *lpData )
{
}
    2dee:	08 95       	ret

00002df0 <rs485getResponseNullFunc>:

uint8_t rs485getResponseNullFunc( uint8_t *rxBuffer, uint8_t len, void *lpData )
{
	return 1;
}
    2df0:	81 e0       	ldi	r24, 0x01	; 1
    2df2:	08 95       	ret

00002df4 <rs485SetUartSetingsNullFunc>:

void rs485SetUartSetingsNullFunc( void *lpData )
{
}
    2df4:	08 95       	ret

00002df6 <rs485RestoreUartSetingsNullFunc>:

void rs485RestoreUartSetingsNullFunc( void *lpData )
{
}
    2df6:	08 95       	ret

00002df8 <rs485SetTimeOutErrorNullFunc>:

void rs485SetTimeOutErrorNullFunc( void *lpData )
{
}
    2df8:	08 95       	ret

00002dfa <rs485ClrTimeOutErrorNullFunc>:

void rs485ClrTimeOutErrorNullFunc( void *lpData )
{
}
    2dfa:	08 95       	ret

00002dfc <initRS485>:
		pxMBFrameCBTransmitterEmpty();
	}
}*/

void initRS485( unsigned long ulBaudRate, uint8_t ucDataBits, uint8_t ucStopBits, uint8_t ucParity )
{
    2dfc:	cf 92       	push	r12
    2dfe:	df 92       	push	r13
    2e00:	ef 92       	push	r14
    2e02:	ff 92       	push	r15
    2e04:	0f 93       	push	r16
    2e06:	6b 01       	movw	r12, r22
    2e08:	7c 01       	movw	r14, r24
	if( usRS485PortAsMaster ) {
    2e0a:	80 91 a6 03 	lds	r24, 0x03A6
    2e0e:	88 23       	and	r24, r24
    2e10:	09 f4       	brne	.+2      	; 0x2e14 <initRS485+0x18>
    2e12:	28 c1       	rjmp	.+592    	; 0x3064 <initRS485+0x268>
		disable_rs485_transmit();
    2e14:	1a 98       	cbi	0x03, 2	; 3
		
		UCSR0A = 0;
    2e16:	1b b8       	out	0x0b, r1	; 11
		UCSR0B = 0;
    2e18:	1a b8       	out	0x0a, r1	; 10
		UCSR0C = 0;
    2e1a:	10 92 95 00 	sts	0x0095, r1

		switch( ulBaudRate ) {
    2e1e:	80 e0       	ldi	r24, 0x00	; 0
    2e20:	c8 16       	cp	r12, r24
    2e22:	86 e9       	ldi	r24, 0x96	; 150
    2e24:	d8 06       	cpc	r13, r24
    2e26:	80 e0       	ldi	r24, 0x00	; 0
    2e28:	e8 06       	cpc	r14, r24
    2e2a:	80 e0       	ldi	r24, 0x00	; 0
    2e2c:	f8 06       	cpc	r15, r24
    2e2e:	09 f4       	brne	.+2      	; 0x2e32 <initRS485+0x36>
    2e30:	c7 c0       	rjmp	.+398    	; 0x2fc0 <initRS485+0x1c4>
    2e32:	81 e0       	ldi	r24, 0x01	; 1
    2e34:	c8 16       	cp	r12, r24
    2e36:	86 e9       	ldi	r24, 0x96	; 150
    2e38:	d8 06       	cpc	r13, r24
    2e3a:	80 e0       	ldi	r24, 0x00	; 0
    2e3c:	e8 06       	cpc	r14, r24
    2e3e:	80 e0       	ldi	r24, 0x00	; 0
    2e40:	f8 06       	cpc	r15, r24
    2e42:	08 f0       	brcs	.+2      	; 0x2e46 <initRS485+0x4a>
    2e44:	47 c0       	rjmp	.+142    	; 0x2ed4 <initRS485+0xd8>
    2e46:	80 e8       	ldi	r24, 0x80	; 128
    2e48:	c8 16       	cp	r12, r24
    2e4a:	85 e2       	ldi	r24, 0x25	; 37
    2e4c:	d8 06       	cpc	r13, r24
    2e4e:	80 e0       	ldi	r24, 0x00	; 0
    2e50:	e8 06       	cpc	r14, r24
    2e52:	80 e0       	ldi	r24, 0x00	; 0
    2e54:	f8 06       	cpc	r15, r24
    2e56:	09 f4       	brne	.+2      	; 0x2e5a <initRS485+0x5e>
    2e58:	9b c0       	rjmp	.+310    	; 0x2f90 <initRS485+0x194>
    2e5a:	81 e8       	ldi	r24, 0x81	; 129
    2e5c:	c8 16       	cp	r12, r24
    2e5e:	85 e2       	ldi	r24, 0x25	; 37
    2e60:	d8 06       	cpc	r13, r24
    2e62:	80 e0       	ldi	r24, 0x00	; 0
    2e64:	e8 06       	cpc	r14, r24
    2e66:	80 e0       	ldi	r24, 0x00	; 0
    2e68:	f8 06       	cpc	r15, r24
    2e6a:	a8 f4       	brcc	.+42     	; 0x2e96 <initRS485+0x9a>
    2e6c:	80 e6       	ldi	r24, 0x60	; 96
    2e6e:	c8 16       	cp	r12, r24
    2e70:	89 e0       	ldi	r24, 0x09	; 9
    2e72:	d8 06       	cpc	r13, r24
    2e74:	80 e0       	ldi	r24, 0x00	; 0
    2e76:	e8 06       	cpc	r14, r24
    2e78:	80 e0       	ldi	r24, 0x00	; 0
    2e7a:	f8 06       	cpc	r15, r24
    2e7c:	09 f4       	brne	.+2      	; 0x2e80 <initRS485+0x84>
    2e7e:	7b c0       	rjmp	.+246    	; 0x2f76 <initRS485+0x17a>
    2e80:	80 ec       	ldi	r24, 0xC0	; 192
    2e82:	c8 16       	cp	r12, r24
    2e84:	82 e1       	ldi	r24, 0x12	; 18
    2e86:	d8 06       	cpc	r13, r24
    2e88:	80 e0       	ldi	r24, 0x00	; 0
    2e8a:	e8 06       	cpc	r14, r24
    2e8c:	80 e0       	ldi	r24, 0x00	; 0
    2e8e:	f8 06       	cpc	r15, r24
    2e90:	09 f0       	breq	.+2      	; 0x2e94 <initRS485+0x98>
    2e92:	bd c0       	rjmp	.+378    	; 0x300e <initRS485+0x212>
    2e94:	77 c0       	rjmp	.+238    	; 0x2f84 <initRS485+0x188>
    2e96:	80 e0       	ldi	r24, 0x00	; 0
    2e98:	c8 16       	cp	r12, r24
    2e9a:	8b e4       	ldi	r24, 0x4B	; 75
    2e9c:	d8 06       	cpc	r13, r24
    2e9e:	80 e0       	ldi	r24, 0x00	; 0
    2ea0:	e8 06       	cpc	r14, r24
    2ea2:	80 e0       	ldi	r24, 0x00	; 0
    2ea4:	f8 06       	cpc	r15, r24
    2ea6:	09 f4       	brne	.+2      	; 0x2eaa <initRS485+0xae>
    2ea8:	7f c0       	rjmp	.+254    	; 0x2fa8 <initRS485+0x1ac>
    2eaa:	80 e8       	ldi	r24, 0x80	; 128
    2eac:	c8 16       	cp	r12, r24
    2eae:	80 e7       	ldi	r24, 0x70	; 112
    2eb0:	d8 06       	cpc	r13, r24
    2eb2:	80 e0       	ldi	r24, 0x00	; 0
    2eb4:	e8 06       	cpc	r14, r24
    2eb6:	80 e0       	ldi	r24, 0x00	; 0
    2eb8:	f8 06       	cpc	r15, r24
    2eba:	09 f4       	brne	.+2      	; 0x2ebe <initRS485+0xc2>
    2ebc:	7b c0       	rjmp	.+246    	; 0x2fb4 <initRS485+0x1b8>
    2ebe:	80 e4       	ldi	r24, 0x40	; 64
    2ec0:	c8 16       	cp	r12, r24
    2ec2:	88 e3       	ldi	r24, 0x38	; 56
    2ec4:	d8 06       	cpc	r13, r24
    2ec6:	80 e0       	ldi	r24, 0x00	; 0
    2ec8:	e8 06       	cpc	r14, r24
    2eca:	80 e0       	ldi	r24, 0x00	; 0
    2ecc:	f8 06       	cpc	r15, r24
    2ece:	09 f0       	breq	.+2      	; 0x2ed2 <initRS485+0xd6>
    2ed0:	9e c0       	rjmp	.+316    	; 0x300e <initRS485+0x212>
    2ed2:	64 c0       	rjmp	.+200    	; 0x2f9c <initRS485+0x1a0>
    2ed4:	80 e0       	ldi	r24, 0x00	; 0
    2ed6:	c8 16       	cp	r12, r24
    2ed8:	84 e8       	ldi	r24, 0x84	; 132
    2eda:	d8 06       	cpc	r13, r24
    2edc:	83 e0       	ldi	r24, 0x03	; 3
    2ede:	e8 06       	cpc	r14, r24
    2ee0:	80 e0       	ldi	r24, 0x00	; 0
    2ee2:	f8 06       	cpc	r15, r24
    2ee4:	09 f4       	brne	.+2      	; 0x2ee8 <initRS485+0xec>
    2ee6:	8e c0       	rjmp	.+284    	; 0x3004 <initRS485+0x208>
    2ee8:	81 e0       	ldi	r24, 0x01	; 1
    2eea:	c8 16       	cp	r12, r24
    2eec:	84 e8       	ldi	r24, 0x84	; 132
    2eee:	d8 06       	cpc	r13, r24
    2ef0:	83 e0       	ldi	r24, 0x03	; 3
    2ef2:	e8 06       	cpc	r14, r24
    2ef4:	80 e0       	ldi	r24, 0x00	; 0
    2ef6:	f8 06       	cpc	r15, r24
    2ef8:	f8 f4       	brcc	.+62     	; 0x2f38 <initRS485+0x13c>
    2efa:	80 e0       	ldi	r24, 0x00	; 0
    2efc:	c8 16       	cp	r12, r24
    2efe:	8c e2       	ldi	r24, 0x2C	; 44
    2f00:	d8 06       	cpc	r13, r24
    2f02:	81 e0       	ldi	r24, 0x01	; 1
    2f04:	e8 06       	cpc	r14, r24
    2f06:	80 e0       	ldi	r24, 0x00	; 0
    2f08:	f8 06       	cpc	r15, r24
    2f0a:	09 f4       	brne	.+2      	; 0x2f0e <initRS485+0x112>
    2f0c:	65 c0       	rjmp	.+202    	; 0x2fd8 <initRS485+0x1dc>
    2f0e:	80 e0       	ldi	r24, 0x00	; 0
    2f10:	c8 16       	cp	r12, r24
    2f12:	82 ec       	ldi	r24, 0xC2	; 194
    2f14:	d8 06       	cpc	r13, r24
    2f16:	81 e0       	ldi	r24, 0x01	; 1
    2f18:	e8 06       	cpc	r14, r24
    2f1a:	80 e0       	ldi	r24, 0x00	; 0
    2f1c:	f8 06       	cpc	r15, r24
    2f1e:	09 f4       	brne	.+2      	; 0x2f22 <initRS485+0x126>
    2f20:	61 c0       	rjmp	.+194    	; 0x2fe4 <initRS485+0x1e8>
    2f22:	80 e0       	ldi	r24, 0x00	; 0
    2f24:	c8 16       	cp	r12, r24
    2f26:	81 ee       	ldi	r24, 0xE1	; 225
    2f28:	d8 06       	cpc	r13, r24
    2f2a:	80 e0       	ldi	r24, 0x00	; 0
    2f2c:	e8 06       	cpc	r14, r24
    2f2e:	80 e0       	ldi	r24, 0x00	; 0
    2f30:	f8 06       	cpc	r15, r24
    2f32:	09 f0       	breq	.+2      	; 0x2f36 <initRS485+0x13a>
    2f34:	6c c0       	rjmp	.+216    	; 0x300e <initRS485+0x212>
    2f36:	4a c0       	rjmp	.+148    	; 0x2fcc <initRS485+0x1d0>
    2f38:	80 e2       	ldi	r24, 0x20	; 32
    2f3a:	c8 16       	cp	r12, r24
    2f3c:	81 ea       	ldi	r24, 0xA1	; 161
    2f3e:	d8 06       	cpc	r13, r24
    2f40:	87 e0       	ldi	r24, 0x07	; 7
    2f42:	e8 06       	cpc	r14, r24
    2f44:	80 e0       	ldi	r24, 0x00	; 0
    2f46:	f8 06       	cpc	r15, r24
    2f48:	09 f4       	brne	.+2      	; 0x2f4c <initRS485+0x150>
    2f4a:	52 c0       	rjmp	.+164    	; 0x2ff0 <initRS485+0x1f4>
    2f4c:	80 e4       	ldi	r24, 0x40	; 64
    2f4e:	c8 16       	cp	r12, r24
    2f50:	82 e4       	ldi	r24, 0x42	; 66
    2f52:	d8 06       	cpc	r13, r24
    2f54:	8f e0       	ldi	r24, 0x0F	; 15
    2f56:	e8 06       	cpc	r14, r24
    2f58:	80 e0       	ldi	r24, 0x00	; 0
    2f5a:	f8 06       	cpc	r15, r24
    2f5c:	09 f4       	brne	.+2      	; 0x2f60 <initRS485+0x164>
    2f5e:	4e c0       	rjmp	.+156    	; 0x2ffc <initRS485+0x200>
    2f60:	80 e9       	ldi	r24, 0x90	; 144
    2f62:	c8 16       	cp	r12, r24
    2f64:	80 ed       	ldi	r24, 0xD0	; 208
    2f66:	d8 06       	cpc	r13, r24
    2f68:	83 e0       	ldi	r24, 0x03	; 3
    2f6a:	e8 06       	cpc	r14, r24
    2f6c:	80 e0       	ldi	r24, 0x00	; 0
    2f6e:	f8 06       	cpc	r15, r24
    2f70:	09 f0       	breq	.+2      	; 0x2f74 <initRS485+0x178>
    2f72:	4d c0       	rjmp	.+154    	; 0x300e <initRS485+0x212>
    2f74:	47 c0       	rjmp	.+142    	; 0x3004 <initRS485+0x208>
    2f76:	e0 ea       	ldi	r30, 0xA0	; 160
    2f78:	ce 2e       	mov	r12, r30
    2f7a:	e1 e0       	ldi	r30, 0x01	; 1
    2f7c:	de 2e       	mov	r13, r30
    2f7e:	e1 2c       	mov	r14, r1
    2f80:	f1 2c       	mov	r15, r1
    2f82:	45 c0       	rjmp	.+138    	; 0x300e <initRS485+0x212>
    2f84:	7f ec       	ldi	r23, 0xCF	; 207
    2f86:	c7 2e       	mov	r12, r23
    2f88:	d1 2c       	mov	r13, r1
    2f8a:	e1 2c       	mov	r14, r1
    2f8c:	f1 2c       	mov	r15, r1
    2f8e:	3f c0       	rjmp	.+126    	; 0x300e <initRS485+0x212>
		case 2400: ulBaudRate = 416; break;
		case 4800: ulBaudRate = 207; break;
    2f90:	67 e6       	ldi	r22, 0x67	; 103
    2f92:	c6 2e       	mov	r12, r22
    2f94:	d1 2c       	mov	r13, r1
    2f96:	e1 2c       	mov	r14, r1
    2f98:	f1 2c       	mov	r15, r1
    2f9a:	39 c0       	rjmp	.+114    	; 0x300e <initRS485+0x212>
		case 9600: ulBaudRate = 103; break;
    2f9c:	54 e4       	ldi	r21, 0x44	; 68
    2f9e:	c5 2e       	mov	r12, r21
    2fa0:	d1 2c       	mov	r13, r1
    2fa2:	e1 2c       	mov	r14, r1
    2fa4:	f1 2c       	mov	r15, r1
    2fa6:	33 c0       	rjmp	.+102    	; 0x300e <initRS485+0x212>
		case 14400: ulBaudRate = 68; break;
    2fa8:	33 e3       	ldi	r19, 0x33	; 51
    2faa:	c3 2e       	mov	r12, r19
    2fac:	d1 2c       	mov	r13, r1
    2fae:	e1 2c       	mov	r14, r1
    2fb0:	f1 2c       	mov	r15, r1
    2fb2:	2d c0       	rjmp	.+90     	; 0x300e <initRS485+0x212>
		case 19200: ulBaudRate = 51; break;
    2fb4:	92 e2       	ldi	r25, 0x22	; 34
    2fb6:	c9 2e       	mov	r12, r25
    2fb8:	d1 2c       	mov	r13, r1
    2fba:	e1 2c       	mov	r14, r1
    2fbc:	f1 2c       	mov	r15, r1
    2fbe:	27 c0       	rjmp	.+78     	; 0x300e <initRS485+0x212>
		case 28800: ulBaudRate = 34; break;
    2fc0:	89 e1       	ldi	r24, 0x19	; 25
    2fc2:	c8 2e       	mov	r12, r24
    2fc4:	d1 2c       	mov	r13, r1
    2fc6:	e1 2c       	mov	r14, r1
    2fc8:	f1 2c       	mov	r15, r1
    2fca:	21 c0       	rjmp	.+66     	; 0x300e <initRS485+0x212>
		case 38400: ulBaudRate = 25; break;
    2fcc:	b0 e1       	ldi	r27, 0x10	; 16
    2fce:	cb 2e       	mov	r12, r27
    2fd0:	d1 2c       	mov	r13, r1
    2fd2:	e1 2c       	mov	r14, r1
    2fd4:	f1 2c       	mov	r15, r1
    2fd6:	1b c0       	rjmp	.+54     	; 0x300e <initRS485+0x212>
		case 57600: ulBaudRate = 16; break;
    2fd8:	ac e0       	ldi	r26, 0x0C	; 12
    2fda:	ca 2e       	mov	r12, r26
    2fdc:	d1 2c       	mov	r13, r1
    2fde:	e1 2c       	mov	r14, r1
    2fe0:	f1 2c       	mov	r15, r1
    2fe2:	15 c0       	rjmp	.+42     	; 0x300e <initRS485+0x212>
		case 76800: ulBaudRate = 12; break;
    2fe4:	f8 e0       	ldi	r31, 0x08	; 8
    2fe6:	cf 2e       	mov	r12, r31
    2fe8:	d1 2c       	mov	r13, r1
    2fea:	e1 2c       	mov	r14, r1
    2fec:	f1 2c       	mov	r15, r1
    2fee:	0f c0       	rjmp	.+30     	; 0x300e <initRS485+0x212>
		case 115200: ulBaudRate = 8; break;
    2ff0:	e1 e0       	ldi	r30, 0x01	; 1
    2ff2:	ce 2e       	mov	r12, r30
    2ff4:	d1 2c       	mov	r13, r1
    2ff6:	e1 2c       	mov	r14, r1
    2ff8:	f1 2c       	mov	r15, r1
    2ffa:	09 c0       	rjmp	.+18     	; 0x300e <initRS485+0x212>
		//case 115200: UCSR0C |= 1<<UMSEL0; UCSR0A |= 1<<U2X0; ulBaudRate = 16; break;
		case 230400: ulBaudRate = 3; break;
		case 250000: ulBaudRate = 3; break;
		case 500000: ulBaudRate = 1; break;
    2ffc:	cc 24       	eor	r12, r12
    2ffe:	dd 24       	eor	r13, r13
    3000:	76 01       	movw	r14, r12
    3002:	05 c0       	rjmp	.+10     	; 0x300e <initRS485+0x212>
    3004:	73 e0       	ldi	r23, 0x03	; 3
    3006:	c7 2e       	mov	r12, r23
    3008:	d1 2c       	mov	r13, r1
    300a:	e1 2c       	mov	r14, r1
    300c:	f1 2c       	mov	r15, r1
		case 1000000: ulBaudRate = 0; break;
		//default: ulBaudRate = UART_BAUD_CALC( ulBaudRate, F_CPU );
		}

		UBRR0H = ulBaudRate>>8;
    300e:	bb 27       	eor	r27, r27
    3010:	af 2d       	mov	r26, r15
    3012:	9e 2d       	mov	r25, r14
    3014:	8d 2d       	mov	r24, r13
    3016:	80 93 90 00 	sts	0x0090, r24
		UBRR0L = ulBaudRate;
    301a:	c9 b8       	out	0x09, r12	; 9

		switch ( ucDataBits ) {
    301c:	47 30       	cpi	r20, 0x07	; 7
    301e:	31 f0       	breq	.+12     	; 0x302c <initRS485+0x230>
    3020:	48 30       	cpi	r20, 0x08	; 8
    3022:	49 f4       	brne	.+18     	; 0x3036 <initRS485+0x23a>
		case 8:
			UCSR0C |= _BV( UCSZ01 ) | _BV( UCSZ00 );
    3024:	80 91 95 00 	lds	r24, 0x0095
    3028:	86 60       	ori	r24, 0x06	; 6
    302a:	03 c0       	rjmp	.+6      	; 0x3032 <initRS485+0x236>
		 break;
		case 7:
			UCSR0C |= _BV( UCSZ01 );
    302c:	80 91 95 00 	lds	r24, 0x0095
    3030:	84 60       	ori	r24, 0x04	; 4
    3032:	80 93 95 00 	sts	0x0095, r24
		 break;
		}

		switch ( ucStopBits ) {
    3036:	22 30       	cpi	r18, 0x02	; 2
    3038:	29 f4       	brne	.+10     	; 0x3044 <initRS485+0x248>
		case 1: 
		 break;
		case 2:
			UCSR0C |= _BV( USBS0 );
    303a:	80 91 95 00 	lds	r24, 0x0095
    303e:	88 60       	ori	r24, 0x08	; 8
    3040:	80 93 95 00 	sts	0x0095, r24
		 break;
		}

		switch ( ucParity ) {
    3044:	01 30       	cpi	r16, 0x01	; 1
    3046:	19 f0       	breq	.+6      	; 0x304e <initRS485+0x252>
    3048:	02 30       	cpi	r16, 0x02	; 2
    304a:	51 f4       	brne	.+20     	; 0x3060 <initRS485+0x264>
    304c:	04 c0       	rjmp	.+8      	; 0x3056 <initRS485+0x25a>
		case 0: // PAR_NONE:
		 break;

		case 1: // PAR_ODD
			UCSR0C |= _BV( UPM01 ) | _BV( UPM00 );
    304e:	80 91 95 00 	lds	r24, 0x0095
    3052:	80 63       	ori	r24, 0x30	; 48
    3054:	03 c0       	rjmp	.+6      	; 0x305c <initRS485+0x260>
		 break;

		case 2: // PAR_EVEN
			UCSR0C |= _BV( UPM01 );
    3056:	80 91 95 00 	lds	r24, 0x0095
    305a:	80 62       	ori	r24, 0x20	; 32
    305c:	80 93 95 00 	sts	0x0095, r24
		 break;
		}

		UCSR0B = _BV( TXEN0 ) | _BV( TXCIE0 );
    3060:	88 e4       	ldi	r24, 0x48	; 72
    3062:	8a b9       	out	0x0a, r24	; 10
	}
}
    3064:	0f 91       	pop	r16
    3066:	ff 90       	pop	r15
    3068:	ef 90       	pop	r14
    306a:	df 90       	pop	r13
    306c:	cf 90       	pop	r12
    306e:	08 95       	ret

00003070 <rs485SendBuffer>:
void rs485ClrTimeOutErrorNullFunc( void *lpData )
{
}

void rs485SendBuffer( uint8_t *buffer, uint8_t len )
{
    3070:	1f 93       	push	r17
    3072:	28 2f       	mov	r18, r24
    3074:	79 2f       	mov	r23, r25
    3076:	16 2f       	mov	r17, r22
	memcpy( (char*)ucRS485txBuffer, buffer, len );
    3078:	80 91 b3 04 	lds	r24, 0x04B3
    307c:	90 91 b4 04 	lds	r25, 0x04B4
    3080:	62 2f       	mov	r22, r18
    3082:	41 2f       	mov	r20, r17
    3084:	50 e0       	ldi	r21, 0x00	; 0
    3086:	0e 94 9e 18 	call	0x313c	; 0x313c <memcpy>

	ucRS485txBufferLenght = len;
    308a:	10 93 b5 04 	sts	0x04B5, r17
	ucRS485rxState = ucRS485txState = 0;
    308e:	10 92 b2 04 	sts	0x04B2, r1
    3092:	80 91 b2 04 	lds	r24, 0x04B2
    3096:	80 93 b6 04 	sts	0x04B6, r24

	UCSR0B &= ~( _BV( RXEN0 ) |  _BV( RXCIE0 ) );
    309a:	8a b1       	in	r24, 0x0a	; 10
    309c:	8f 76       	andi	r24, 0x6F	; 111
    309e:	8a b9       	out	0x0a, r24	; 10
	enable_rs485_transmit();
    30a0:	1a 9a       	sbi	0x03, 2	; 3

	UDR0 = ucRS485txBuffer[ ucRS485txState ];
    30a2:	80 91 b2 04 	lds	r24, 0x04B2
    30a6:	e0 91 b3 04 	lds	r30, 0x04B3
    30aa:	f0 91 b4 04 	lds	r31, 0x04B4
    30ae:	e8 0f       	add	r30, r24
    30b0:	f1 1d       	adc	r31, r1
    30b2:	80 81       	ld	r24, Z
    30b4:	8c b9       	out	0x0c, r24	; 12
}
    30b6:	1f 91       	pop	r17
    30b8:	08 95       	ret

000030ba <__mulsi3>:
    30ba:	62 9f       	mul	r22, r18
    30bc:	d0 01       	movw	r26, r0
    30be:	73 9f       	mul	r23, r19
    30c0:	f0 01       	movw	r30, r0
    30c2:	82 9f       	mul	r24, r18
    30c4:	e0 0d       	add	r30, r0
    30c6:	f1 1d       	adc	r31, r1
    30c8:	64 9f       	mul	r22, r20
    30ca:	e0 0d       	add	r30, r0
    30cc:	f1 1d       	adc	r31, r1
    30ce:	92 9f       	mul	r25, r18
    30d0:	f0 0d       	add	r31, r0
    30d2:	83 9f       	mul	r24, r19
    30d4:	f0 0d       	add	r31, r0
    30d6:	74 9f       	mul	r23, r20
    30d8:	f0 0d       	add	r31, r0
    30da:	65 9f       	mul	r22, r21
    30dc:	f0 0d       	add	r31, r0
    30de:	99 27       	eor	r25, r25
    30e0:	72 9f       	mul	r23, r18
    30e2:	b0 0d       	add	r27, r0
    30e4:	e1 1d       	adc	r30, r1
    30e6:	f9 1f       	adc	r31, r25
    30e8:	63 9f       	mul	r22, r19
    30ea:	b0 0d       	add	r27, r0
    30ec:	e1 1d       	adc	r30, r1
    30ee:	f9 1f       	adc	r31, r25
    30f0:	bd 01       	movw	r22, r26
    30f2:	cf 01       	movw	r24, r30
    30f4:	11 24       	eor	r1, r1
    30f6:	08 95       	ret

000030f8 <__udivmodsi4>:
    30f8:	a1 e2       	ldi	r26, 0x21	; 33
    30fa:	1a 2e       	mov	r1, r26
    30fc:	aa 1b       	sub	r26, r26
    30fe:	bb 1b       	sub	r27, r27
    3100:	fd 01       	movw	r30, r26
    3102:	0d c0       	rjmp	.+26     	; 0x311e <__udivmodsi4_ep>

00003104 <__udivmodsi4_loop>:
    3104:	aa 1f       	adc	r26, r26
    3106:	bb 1f       	adc	r27, r27
    3108:	ee 1f       	adc	r30, r30
    310a:	ff 1f       	adc	r31, r31
    310c:	a2 17       	cp	r26, r18
    310e:	b3 07       	cpc	r27, r19
    3110:	e4 07       	cpc	r30, r20
    3112:	f5 07       	cpc	r31, r21
    3114:	20 f0       	brcs	.+8      	; 0x311e <__udivmodsi4_ep>
    3116:	a2 1b       	sub	r26, r18
    3118:	b3 0b       	sbc	r27, r19
    311a:	e4 0b       	sbc	r30, r20
    311c:	f5 0b       	sbc	r31, r21

0000311e <__udivmodsi4_ep>:
    311e:	66 1f       	adc	r22, r22
    3120:	77 1f       	adc	r23, r23
    3122:	88 1f       	adc	r24, r24
    3124:	99 1f       	adc	r25, r25
    3126:	1a 94       	dec	r1
    3128:	69 f7       	brne	.-38     	; 0x3104 <__udivmodsi4_loop>
    312a:	60 95       	com	r22
    312c:	70 95       	com	r23
    312e:	80 95       	com	r24
    3130:	90 95       	com	r25
    3132:	9b 01       	movw	r18, r22
    3134:	ac 01       	movw	r20, r24
    3136:	bd 01       	movw	r22, r26
    3138:	cf 01       	movw	r24, r30
    313a:	08 95       	ret

0000313c <memcpy>:
    313c:	fb 01       	movw	r30, r22
    313e:	dc 01       	movw	r26, r24
    3140:	02 c0       	rjmp	.+4      	; 0x3146 <memcpy+0xa>
    3142:	01 90       	ld	r0, Z+
    3144:	0d 92       	st	X+, r0
    3146:	41 50       	subi	r20, 0x01	; 1
    3148:	50 40       	sbci	r21, 0x00	; 0
    314a:	d8 f7       	brcc	.-10     	; 0x3142 <memcpy+0x6>
    314c:	08 95       	ret

0000314e <_exit>:
    314e:	f8 94       	cli

00003150 <__stop_program>:
    3150:	ff cf       	rjmp	.-2      	; 0x3150 <__stop_program>
